Microchip Technology Inc, v1.31 (A)

Tool Name:
  c:\program files (x86)\microchip\xc16\v1.31\bin\bin\..\bin/elf-ld.exe

Command:
  -p33FJ256GP710A \
  -o \
  dist/default/production/MatrixPilot-udb5.X.production.elf \
  -Lc:/program files (x86)/microchip/xc16/v1.31/bin/bin/.. \
  -Lc:/program files (x86)/microchip/xc16/v1.31/bin/bin/../../lib \
  -Lc:/program files (x86)/microchip/xc16/v1.31/bin/bin/../../lib/PIC24E \
  -Lc:/program files (x86)/microchip/xc16/v1.31/bin/bin/../../support/PIC24E/gld \
  -Lc:/program files (x86)/microchip/xc16/v1.31/bin/bin/../../lib/PIC24F \
  -Lc:/program files (x86)/microchip/xc16/v1.31/bin/bin/../../support/PIC24F/gld \
  -Lc:/program files (x86)/microchip/xc16/v1.31/bin/bin/../../lib/PIC24H \
  -Lc:/program files (x86)/microchip/xc16/v1.31/bin/bin/../../support/PIC24H/gld \
  -Lc:/program files (x86)/microchip/xc16/v1.31/bin/bin/../../lib/dsPIC30F \
  -Lc:/program files (x86)/microchip/xc16/v1.31/bin/bin/../../support/dsPIC30F/gld \
  -Lc:/program files (x86)/microchip/xc16/v1.31/bin/bin/../../lib/dsPIC33E \
  -Lc:/program files (x86)/microchip/xc16/v1.31/bin/bin/../../support/dsPIC33E/gld \
  -Lc:/program files (x86)/microchip/xc16/v1.31/bin/bin/../../lib/dsPIC33F \
  -Lc:/program files (x86)/microchip/xc16/v1.31/bin/bin/../../support/dsPIC33F/gld \
  build/default/production/_ext/1077471063/estWind.o \
  build/default/production/_ext/1077471063/estYawDrift.o \
  build/default/production/_ext/1077471063/gpsParseCommon.o \
  build/default/production/_ext/1077471063/gpsParseSTD.o \
  build/default/production/_ext/1077471063/gpsParseUBX.o \
  build/default/production/_ext/1077471063/mathlibNAV.o \
  build/default/production/_ext/1077471063/rmat.o \
  build/default/production/_ext/1077471063/libDCM.o \
  build/default/production/_ext/1077471063/deadReckoning.o \
  build/default/production/_ext/1077471063/gpsParseMTEK.o \
  build/default/production/_ext/1077471063/estAltitude.o \
  build/default/production/_ext/1077454706/background.o \
  build/default/production/_ext/1077454706/libUDB.o \
  build/default/production/_ext/1077454706/servoOut.o \
  build/default/production/_ext/1077454706/osd.o \
  build/default/production/_ext/1077454706/24LC256.o \
  build/default/production/_ext/1077454706/events.o \
  build/default/production/_ext/1077454706/mpu6000.o \
  build/default/production/_ext/1077454706/spiUtils.o \
  build/default/production/_ext/1077454706/analog2digital_udb5.o \
  build/default/production/_ext/1077454706/traps_asm.o \
  build/default/production/_ext/1077454706/analog2digital_udb4.o \
  build/default/production/_ext/1077454706/mcu.o \
  build/default/production/_ext/1077454706/eeprom_udb4.o \
  build/default/production/_ext/1077454706/traps.o \
  build/default/production/_ext/1077454706/barometer.o \
  build/default/production/_ext/1077454706/I2C1.o \
  build/default/production/_ext/1077454706/I2C2.o \
  build/default/production/_ext/1077454706/magnetometer.o \
  build/default/production/_ext/1077454706/radioIn.o \
  build/default/production/_ext/1077454706/serialIO.o \
  build/default/production/_ext/1077454706/read.o \
  build/default/production/_ext/1077454706/uart.o \
  build/default/production/_ext/1077454706/write.o \
  build/default/production/_ext/679848855/madd.o \
  build/default/production/_ext/679848855/mmul.o \
  build/default/production/_ext/679848855/mscl.o \
  build/default/production/_ext/679848855/msub.o \
  build/default/production/_ext/679848855/mtrp.o \
  build/default/production/_ext/679848855/vadd.o \
  build/default/production/_ext/679848855/vcon.o \
  build/default/production/_ext/679848855/vcopy.o \
  build/default/production/_ext/679848855/vcor.o \
  build/default/production/_ext/679848855/vdot.o \
  build/default/production/_ext/679848855/vmax.o \
  build/default/production/_ext/679848855/vmin.o \
  build/default/production/_ext/679848855/vmul.o \
  build/default/production/_ext/679848855/vneg.o \
  build/default/production/_ext/679848855/vpow.o \
  build/default/production/_ext/679848855/vscl.o \
  build/default/production/_ext/679848855/vsub.o \
  build/default/production/_ext/679848855/vzpad.o \
  build/default/production/_ext/1472/config_tests.o \
  build/default/production/_ext/1472/behavior.o \
  build/default/production/_ext/1472/cameraCntrl.o \
  build/default/production/_ext/1472/main.o \
  build/default/production/_ext/1472/navigate.o \
  build/default/production/_ext/1472/pitchCntrl.o \
  build/default/production/_ext/1472/rollCntrl.o \
  build/default/production/_ext/1472/servoMix.o \
  build/default/production/_ext/1472/states.o \
  build/default/production/_ext/1472/yawCntrl.o \
  build/default/production/_ext/1472/telemetry.o \
  build/default/production/_ext/1472/servoPrepare.o \
  build/default/production/_ext/1472/flightplan-waypoints.o \
  build/default/production/_ext/1472/flightplan-logo.o \
  build/default/production/_ext/1472/mp_osd.o \
  build/default/production/_ext/1472/altitudeCntrl.o \
  build/default/production/_ext/1472/MAVLink.o \
  build/default/production/_ext/1472/mode_switch.o \
  build/default/production/_ext/1472/data_services.o \
  build/default/production/_ext/1472/data_storage.o \
  build/default/production/_ext/1472/nv_memory_table.o \
  build/default/production/_ext/1472/parameter_table.o \
  build/default/production/_ext/1472/airspeedCntrl.o \
  build/default/production/_ext/1472/altitudeCntrlVariable.o \
  build/default/production/_ext/1472/euler_angles.o \
  build/default/production/_ext/1472/console.o \
  build/default/production/_ext/1472/sonarCntrl.o \
  build/default/production/_ext/1472/motorCntrl.o \
  --defsym=__MPLAB_BUILD=1 \
  -Tp33FJ256GP710A.gld.00 \
  --heap=1024 \
  --stack=16 \
  --check-sections \
  --data-init \
  --pack-data \
  --handles \
  --isr \
  --no-gc-sections \
  --fill-upper=0 \
  --stackguard=16 \
  --library-path=../../../../../../../Program Files/Microchip/MPLAB C30/lib \
  --library-path=. \
  --no-force-link \
  --smart-io \
  -Map=dist/default/production/MatrixPilot-udb5.X.production.map \
  --report-mem \
  --memorysummary \
  dist/default/production/memoryfile.xml \
  -start-group \
  --library=lega-pic30-elf \
  --library=m-elf \
  --library=lega-c-elf \
  -end-group \

Archive member included because of file (symbol)

c:/program files (x86)/microchip/xc16/v1.31/bin/bin/../../lib/dsPIC33F\libp33FJ256GP710A-elf.a(CloseSPI1.o)
                              build/default/production/_ext/1077454706/spiUtils.o (_CloseSPI1)
c:/program files (x86)/microchip/xc16/v1.31/bin/bin/../../lib/dsPIC33F\libp33FJ256GP710A-elf.a(CloseSPI2.o)
                              build/default/production/_ext/1077454706/spiUtils.o (_CloseSPI2)
c:/program files (x86)/microchip/xc16/v1.31/bin/bin/../../lib/dsPIC33F\libp33FJ256GP710A-elf.a(ConfigIntSPI1.o)
                              build/default/production/_ext/1077454706/spiUtils.o (_ConfigIntSPI1)
c:/program files (x86)/microchip/xc16/v1.31/bin/bin/../../lib/dsPIC33F\libp33FJ256GP710A-elf.a(ConfigIntSPI2.o)
                              build/default/production/_ext/1077454706/spiUtils.o (_ConfigIntSPI2)
c:/program files (x86)/microchip/xc16/v1.31/bin/bin/../../lib/dsPIC33F\libp33FJ256GP710A-elf.a(OpenSPI1.o)
                              build/default/production/_ext/1077454706/spiUtils.o (_OpenSPI1)
c:/program files (x86)/microchip/xc16/v1.31/bin/bin/../../lib/dsPIC33F\libp33FJ256GP710A-elf.a(OpenSPI2.o)
                              build/default/production/_ext/1077454706/spiUtils.o (_OpenSPI2)
c:/program files (x86)/microchip/xc16/v1.31/bin/bin/../../lib\liblega-pic30-elf.a(crt0_standard.o)
                              (__resetPRI)
c:/program files (x86)/microchip/xc16/v1.31/bin/bin/../../lib\liblega-pic30-elf.a(data_init_standard.o)
                              c:/program files (x86)/microchip/xc16/v1.31/bin/bin/../../lib\liblega-pic30-elf.a(crt0_standard.o) (__data_init_standard)
c:/program files (x86)/microchip/xc16/v1.31/bin/bin/../../lib\liblega-pic30-elf.a(crt_start_mode_normal.Leo)
                              (__crt_start_mode_normal)
c:/program files (x86)/microchip/xc16/v1.31/bin/bin/../../lib\liblega-pic30-elf.a(c30_uart.Leo)
                              build/default/production/_ext/1077454706/read.o (___C30_UART)
c:/program files (x86)/microchip/xc16/v1.31/bin/bin/../../lib\liblega-pic30-elf.a(delay32.Leo)
                              build/default/production/_ext/1077454706/mpu6000.o (___delay32)
c:/program files (x86)/microchip/xc16/v1.31/bin/bin/../../lib\libm-elf.a(addsf3.eo)
                              build/default/production/_ext/1077471063/mathlibNAV.o (___subsf3)
c:/program files (x86)/microchip/xc16/v1.31/bin/bin/../../lib\libm-elf.a(divsf3.eo)
                              build/default/production/_ext/1077471063/mathlibNAV.o (___divsf3)
c:/program files (x86)/microchip/xc16/v1.31/bin/bin/../../lib\libm-elf.a(divsi3.eo)
                              build/default/production/_ext/1077471063/gpsParseCommon.o (___divsi3)
c:/program files (x86)/microchip/xc16/v1.31/bin/bin/../../lib\libm-elf.a(fixsfsi.eo)
                              build/default/production/_ext/1077471063/mathlibNAV.o (_(float, int, long long, short, float, short, int))
c:/program files (x86)/microchip/xc16/v1.31/bin/bin/../../lib\libm-elf.a(fixunssfsi.eo)
                              build/default/production/_ext/1472/motorCntrl.o (___fixunssfsi)
c:/program files (x86)/microchip/xc16/v1.31/bin/bin/../../lib\libm-elf.a(floatsisf.eo)
                              build/default/production/_ext/1077471063/mathlibNAV.o (___floatsisf)
c:/program files (x86)/microchip/xc16/v1.31/bin/bin/../../lib\libm-elf.a(floatunsisf.eo)
                              build/default/production/_ext/1472/motorCntrl.o (___floatunsisf)
c:/program files (x86)/microchip/xc16/v1.31/bin/bin/../../lib\libm-elf.a(fpack.eo)
                              c:/program files (x86)/microchip/xc16/v1.31/bin/bin/../../lib\libm-elf.a(addsf3.eo) (__fpack)
c:/program files (x86)/microchip/xc16/v1.31/bin/bin/../../lib\libm-elf.a(funpack.eo)
                              c:/program files (x86)/microchip/xc16/v1.31/bin/bin/../../lib\libm-elf.a(fixsfsi.eo) (__funpack)
c:/program files (x86)/microchip/xc16/v1.31/bin/bin/../../lib\libm-elf.a(funpack2.eo)
                              c:/program files (x86)/microchip/xc16/v1.31/bin/bin/../../lib\libm-elf.a(addsf3.eo) (__funpack2)
c:/program files (x86)/microchip/xc16/v1.31/bin/bin/../../lib\libm-elf.a(futil.eo)
                              c:/program files (x86)/microchip/xc16/v1.31/bin/bin/../../lib\libm-elf.a(addsf3.eo) (__fPropagateNaN)
c:/program files (x86)/microchip/xc16/v1.31/bin/bin/../../lib\libm-elf.a(mulsf3.eo)
                              build/default/production/_ext/1077471063/mathlibNAV.o (___mulsf3)
c:/program files (x86)/microchip/xc16/v1.31/bin/bin/../../lib\libm-elf.a(powf.eo)
                              build/default/production/_ext/1077471063/estAltitude.o (_powf)
c:/program files (x86)/microchip/xc16/v1.31/bin/bin/../../lib\libm-elf.a(udivsi3.eo)
                              build/default/production/_ext/1077454706/barometer.o (___udivsi3)
c:/program files (x86)/microchip/xc16/v1.31/bin/bin/../../lib\libm-elf.a(divmoddi3.eo)
                              build/default/production/_ext/1077471063/mathlibNAV.o (___udivdi3)
c:/program files (x86)/microchip/xc16/v1.31/bin/bin/../../lib\libm-elf.a(_frexpf.eo)
                              c:/program files (x86)/microchip/xc16/v1.31/bin/bin/../../lib\libm-elf.a(powf.eo) (__frexpf)
c:/program files (x86)/microchip/xc16/v1.31/bin/bin/../../lib\libm-elf.a(errno.eo)
                              c:/program files (x86)/microchip/xc16/v1.31/bin/bin/../../lib\libm-elf.a(powf.eo) (_errno)
c:/program files (x86)/microchip/xc16/v1.31/bin/bin/../../lib\libm-elf.a(expf.eo)
                              c:/program files (x86)/microchip/xc16/v1.31/bin/bin/../../lib\libm-elf.a(powf.eo) (_expf)
c:/program files (x86)/microchip/xc16/v1.31/bin/bin/../../lib\libm-elf.a(fchop.eo)
                              c:/program files (x86)/microchip/xc16/v1.31/bin/bin/../../lib\libm-elf.a(powf.eo) (__fchop)
c:/program files (x86)/microchip/xc16/v1.31/bin/bin/../../lib\libm-elf.a(feqltle.eo)
                              c:/program files (x86)/microchip/xc16/v1.31/bin/bin/../../lib\libm-elf.a(powf.eo) (___eqsf2)
c:/program files (x86)/microchip/xc16/v1.31/bin/bin/../../lib\libm-elf.a(fgtge.eo)
                              c:/program files (x86)/microchip/xc16/v1.31/bin/bin/../../lib\libm-elf.a(expf.eo) (___gtsf2)
c:/program files (x86)/microchip/xc16/v1.31/bin/bin/../../lib\libm-elf.a(floatdisf.eo)
                              c:/program files (x86)/microchip/xc16/v1.31/bin/bin/../../lib\libm-elf.a(floatsisf.eo) (___floatdisf)
c:/program files (x86)/microchip/xc16/v1.31/bin/bin/../../lib\libm-elf.a(floatundisf.eo)
                              c:/program files (x86)/microchip/xc16/v1.31/bin/bin/../../lib\libm-elf.a(floatunsisf.eo) (___floatundisf)
c:/program files (x86)/microchip/xc16/v1.31/bin/bin/../../lib\libm-elf.a(ldexpf.eo)
                              c:/program files (x86)/microchip/xc16/v1.31/bin/bin/../../lib\libm-elf.a(powf.eo) (_ldexpf)
c:/program files (x86)/microchip/xc16/v1.31/bin/bin/../../lib\libm-elf.a(logf.eo)
                              c:/program files (x86)/microchip/xc16/v1.31/bin/bin/../../lib\libm-elf.a(powf.eo) (_logf)
c:/program files (x86)/microchip/xc16/v1.31/bin/bin/../../lib\libm-elf.a(fcompare.eo)
                              c:/program files (x86)/microchip/xc16/v1.31/bin/bin/../../lib\libm-elf.a(feqltle.eo) (__fcompare)
c:/program files (x86)/microchip/xc16/v1.31/bin/bin/../../lib\liblega-c-elf.a(calloc.XX_eo)
                              build/default/production/_ext/1077471063/mathlibNAV.o (_calloc)
c:/program files (x86)/microchip/xc16/v1.31/bin/bin/../../lib\liblega-c-elf.a(malloc.XX_eo)
                              c:/program files (x86)/microchip/xc16/v1.31/bin/bin/../../lib\liblega-c-elf.a(calloc.XX_eo) (_malloc)
c:/program files (x86)/microchip/xc16/v1.31/bin/bin/../../lib\liblega-c-elf.a(memset.XX_eo)
                              c:/program files (x86)/microchip/xc16/v1.31/bin/bin/../../lib\liblega-c-elf.a(calloc.XX_eo) (_memset)
c:/program files (x86)/microchip/xc16/v1.31/bin/bin/../../lib\liblega-c-elf.a(strlen.XX_eo)
                              build/default/production/_ext/1077471063/gpsParseCommon.o (_strlen)
c:/program files (x86)/microchip/xc16/v1.31/bin/bin/../../lib\liblega-c-elf.a(xgetmem.XX_eo)
                              c:/program files (x86)/microchip/xc16/v1.31/bin/bin/../../lib\liblega-c-elf.a(malloc.XX_eo) (__Getmem)
c:/program files (x86)/microchip/xc16/v1.31/bin/bin/../../lib\liblega-c-elf.a(vsnprint.XX_eo)
                              build/default/production/_ext/1472/telemetry.o (_vsnprintf)
c:/program files (x86)/microchip/xc16/v1.31/bin/bin/../../lib\liblega-c-elf.a(xprintf.XX_eo)
                              c:/program files (x86)/microchip/xc16/v1.31/bin/bin/../../lib\liblega-c-elf.a(vsnprint.XX_eo) (__Printf)
c:/program files (x86)/microchip/xc16/v1.31/bin/bin/../../lib\liblega-c-elf.a(xputfld.XX_eo)
                              c:/program files (x86)/microchip/xc16/v1.31/bin/bin/../../lib\liblega-c-elf.a(xprintf.XX_eo) (__Putfld)
c:/program files (x86)/microchip/xc16/v1.31/bin/bin/../../lib\liblega-c-elf.a(strchr.XX_elo)
                              c:/program files (x86)/microchip/xc16/v1.31/bin/bin/../../lib\liblega-c-elf.a(xprintf.XX_eo) (_strchr)
c:/program files (x86)/microchip/xc16/v1.31/bin/bin/../../lib\liblega-c-elf.a(xvacopy.XX_elo)
                              c:/program files (x86)/microchip/xc16/v1.31/bin/bin/../../lib\liblega-c-elf.a(xprintf.XX_eo) (__Vacopy)
c:/program files (x86)/microchip/xc16/v1.31/bin/bin/../../lib\liblega-c-elf.a(printf_cdnopuxX.XXeo)
                              build/default/production/_ext/1077454706/mpu6000.o (__printf_cdnopuxX)
c:/program files (x86)/microchip/xc16/v1.31/bin/bin/../../lib\liblega-c-elf.a(xprintf_cdnopuxX.XXeo)
                              c:/program files (x86)/microchip/xc16/v1.31/bin/bin/../../lib\liblega-c-elf.a(printf_cdnopuxX.XXeo) (___Printf_cdnopuxX)
c:/program files (x86)/microchip/xc16/v1.31/bin/bin/../../lib\liblega-c-elf.a(xputfld_cdnopuxX.XXeo)
                              c:/program files (x86)/microchip/xc16/v1.31/bin/bin/../../lib\liblega-c-elf.a(xprintf_cdnopuxX.XXeo) (___Putfld_cdnopuxX)
c:/program files (x86)/microchip/xc16/v1.31/bin/bin/../../lib\liblega-c-elf.a(free.XX_eo)
                              c:/program files (x86)/microchip/xc16/v1.31/bin/bin/../../lib\liblega-c-elf.a(malloc.XX_eo) (_free)
c:/program files (x86)/microchip/xc16/v1.31/bin/bin/../../lib\liblega-c-elf.a(fwrite.XX_eo)
                              c:/program files (x86)/microchip/xc16/v1.31/bin/bin/../../lib\liblega-c-elf.a(printf_cdnopuxX.XXeo) (_fwrite)
c:/program files (x86)/microchip/xc16/v1.31/bin/bin/../../lib\liblega-c-elf.a(memchr.XX_eo)
                              c:/program files (x86)/microchip/xc16/v1.31/bin/bin/../../lib\liblega-c-elf.a(xputfld.XX_eo) (_memchr)
c:/program files (x86)/microchip/xc16/v1.31/bin/bin/../../lib\liblega-c-elf.a(memcpy.XX_eo)
                              c:/program files (x86)/microchip/xc16/v1.31/bin/bin/../../lib\liblega-c-elf.a(vsnprint.XX_eo) (_memcpy)
c:/program files (x86)/microchip/xc16/v1.31/bin/bin/../../lib\liblega-c-elf.a(xfiles.XX_eo)
                              c:/program files (x86)/microchip/xc16/v1.31/bin/bin/../../lib\liblega-c-elf.a(printf_cdnopuxX.XXeo) (__Stdout)
c:/program files (x86)/microchip/xc16/v1.31/bin/bin/../../lib\liblega-c-elf.a(xfwprep.XX_eo)
                              c:/program files (x86)/microchip/xc16/v1.31/bin/bin/../../lib\liblega-c-elf.a(fwrite.XX_eo) (__Fwprep)
c:/program files (x86)/microchip/xc16/v1.31/bin/bin/../../lib\liblega-c-elf.a(xldtob.XX_eo)
                              c:/program files (x86)/microchip/xc16/v1.31/bin/bin/../../lib\liblega-c-elf.a(xputfld.XX_eo) (__Ldtob)
c:/program files (x86)/microchip/xc16/v1.31/bin/bin/../../lib\liblega-c-elf.a(xldunsca.XX_eo)
                              c:/program files (x86)/microchip/xc16/v1.31/bin/bin/../../lib\liblega-c-elf.a(xldtob.XX_eo) (__LDunscale)
c:/program files (x86)/microchip/xc16/v1.31/bin/bin/../../lib\liblega-c-elf.a(xlitob.XX_eo)
                              c:/program files (x86)/microchip/xc16/v1.31/bin/bin/../../lib\liblega-c-elf.a(xputfld.XX_eo) (__Litob)
c:/program files (x86)/microchip/xc16/v1.31/bin/bin/../../lib\liblega-c-elf.a(xputtxt.XX_eo)
                              c:/program files (x86)/microchip/xc16/v1.31/bin/bin/../../lib\liblega-c-elf.a(xprintf.XX_eo) (__Puttxt)
c:/program files (x86)/microchip/xc16/v1.31/bin/bin/../../lib\liblega-c-elf.a(fclose.XX_elo)
                              c:/program files (x86)/microchip/xc16/v1.31/bin/bin/../../lib\liblega-c-elf.a(xfwprep.XX_eo) (__Closreg)
c:/program files (x86)/microchip/xc16/v1.31/bin/bin/../../lib\liblega-c-elf.a(fflush.XX_elo)
                              c:/program files (x86)/microchip/xc16/v1.31/bin/bin/../../lib\liblega-c-elf.a(fwrite.XX_eo) (__DNKfflush)
c:/program files (x86)/microchip/xc16/v1.31/bin/bin/../../lib\liblega-c-elf.a(ldiv.XX_elo)
                              c:/program files (x86)/microchip/xc16/v1.31/bin/bin/../../lib\liblega-c-elf.a(xldtob.XX_eo) (_ldiv)
c:/program files (x86)/microchip/xc16/v1.31/bin/bin/../../lib\liblega-c-elf.a(xatexit.XX_elo)
                              c:/program files (x86)/microchip/xc16/v1.31/bin/bin/../../lib\liblega-c-elf.a(fclose.XX_elo) (__Atexit)
c:/program files (x86)/microchip/xc16/v1.31/bin/bin/../../lib\liblega-c-elf.a(xdnorm.XX_elo)
                              c:/program files (x86)/microchip/xc16/v1.31/bin/bin/../../lib\liblega-c-elf.a(xldunsca.XX_eo) (__Dnorm)
c:/program files (x86)/microchip/xc16/v1.31/bin/bin/../../lib\liblega-c-elf.a(xldscale.XX_elo)
                              c:/program files (x86)/microchip/xc16/v1.31/bin/bin/../../lib\liblega-c-elf.a(xldtob.XX_eo) (__LDscale)
c:/program files (x86)/microchip/xc16/v1.31/bin/bin/../../lib\liblega-c-elf.a(xgenld.XX_eo)
                              c:/program files (x86)/microchip/xc16/v1.31/bin/bin/../../lib\liblega-c-elf.a(xldtob.XX_eo) (__Genld)
c:/program files (x86)/microchip/xc16/v1.31/bin/bin/../../lib\liblega-c-elf.a(div.XX_elo)
                              c:/program files (x86)/microchip/xc16/v1.31/bin/bin/../../lib\liblega-c-elf.a(xgenld.XX_eo) (_div)
c:/program files (x86)/microchip/xc16/v1.31/bin/bin/../../lib\liblega-pic30-elf.a(close.Leo)
                              c:/program files (x86)/microchip/xc16/v1.31/bin/bin/../../lib\liblega-c-elf.a(fclose.XX_elo) (_close)
c:/program files (x86)/microchip/xc16/v1.31/bin/bin/../../lib\liblega-pic30-elf.a(remove.Leo)
                              c:/program files (x86)/microchip/xc16/v1.31/bin/bin/../../lib\liblega-c-elf.a(fclose.XX_elo) (_remove)
c:/program files (x86)/microchip/xc16/v1.31/bin/bin/../../lib\liblega-pic30-elf.a(sbrk.Leo)
                              c:/program files (x86)/microchip/xc16/v1.31/bin/bin/../../lib\liblega-c-elf.a(xgetmem.XX_eo) (_sbrk)
c:/program files (x86)/microchip/xc16/v1.31/bin/bin/../../lib\liblega-pic30-elf.a(brk.Lelo)
                              c:/program files (x86)/microchip/xc16/v1.31/bin/bin/../../lib\liblega-pic30-elf.a(sbrk.Leo) (_brk)
c:/program files (x86)/microchip/xc16/v1.31/bin/bin/../../lib\libm-elf.a(deqltle.eo)
                              c:/program files (x86)/microchip/xc16/v1.31/bin/bin/../../lib\liblega-c-elf.a(xldtob.XX_eo) (___ltdf2)
c:/program files (x86)/microchip/xc16/v1.31/bin/bin/../../lib\libm-elf.a(dgtge.eo)
                              c:/program files (x86)/microchip/xc16/v1.31/bin/bin/../../lib\liblega-c-elf.a(xldtob.XX_eo) (___gtdf2)
c:/program files (x86)/microchip/xc16/v1.31/bin/bin/../../lib\libm-elf.a(divdf3.eo)
                              c:/program files (x86)/microchip/xc16/v1.31/bin/bin/../../lib\liblega-c-elf.a(xldtob.XX_eo) (___divdf3)
c:/program files (x86)/microchip/xc16/v1.31/bin/bin/../../lib\libm-elf.a(dpack.eo)
                              c:/program files (x86)/microchip/xc16/v1.31/bin/bin/../../lib\libm-elf.a(divdf3.eo) (__dpack)
c:/program files (x86)/microchip/xc16/v1.31/bin/bin/../../lib\libm-elf.a(dunpack2.eo)
                              c:/program files (x86)/microchip/xc16/v1.31/bin/bin/../../lib\libm-elf.a(divdf3.eo) (__dunpack2)
c:/program files (x86)/microchip/xc16/v1.31/bin/bin/../../lib\libm-elf.a(extendsfdf.eo)
                              c:/program files (x86)/microchip/xc16/v1.31/bin/bin/../../lib\liblega-c-elf.a(xputfld.XX_eo) (___extendsfdf2)
c:/program files (x86)/microchip/xc16/v1.31/bin/bin/../../lib\libm-elf.a(fixdfsi.eo)
                              c:/program files (x86)/microchip/xc16/v1.31/bin/bin/../../lib\liblega-c-elf.a(xldtob.XX_eo) (_(float, int, long long, double, float, short, int))
c:/program files (x86)/microchip/xc16/v1.31/bin/bin/../../lib\libm-elf.a(floatsidf.eo)
                              c:/program files (x86)/microchip/xc16/v1.31/bin/bin/../../lib\liblega-c-elf.a(xldtob.XX_eo) (___floatsidf)
c:/program files (x86)/microchip/xc16/v1.31/bin/bin/../../lib\libm-elf.a(muldf3.eo)
                              c:/program files (x86)/microchip/xc16/v1.31/bin/bin/../../lib\liblega-c-elf.a(xldtob.XX_eo) (___muldf3)
c:/program files (x86)/microchip/xc16/v1.31/bin/bin/../../lib\libm-elf.a(subdf3.eo)
                              c:/program files (x86)/microchip/xc16/v1.31/bin/bin/../../lib\liblega-c-elf.a(xldtob.XX_eo) (___subdf3)
c:/program files (x86)/microchip/xc16/v1.31/bin/bin/../../lib\libm-elf.a(umodsi3.eo)
                              c:/program files (x86)/microchip/xc16/v1.31/bin/bin/../../lib\liblega-c-elf.a(xlitob.XX_eo) (___umodsi3)
c:/program files (x86)/microchip/xc16/v1.31/bin/bin/../../lib\libm-elf.a(mulsi3.eo)
                              c:/program files (x86)/microchip/xc16/v1.31/bin/bin/../../lib\liblega-c-elf.a(fclose.XX_elo) (___mulsi3)
c:/program files (x86)/microchip/xc16/v1.31/bin/bin/../../lib\libm-elf.a(adddf3.eo)
                              c:/program files (x86)/microchip/xc16/v1.31/bin/bin/../../lib\libm-elf.a(subdf3.eo) (___adddf3)
c:/program files (x86)/microchip/xc16/v1.31/bin/bin/../../lib\libm-elf.a(dcompare.eo)
                              c:/program files (x86)/microchip/xc16/v1.31/bin/bin/../../lib\libm-elf.a(deqltle.eo) (__dcompare)
c:/program files (x86)/microchip/xc16/v1.31/bin/bin/../../lib\libm-elf.a(dpropagateNaN.eo)
                              c:/program files (x86)/microchip/xc16/v1.31/bin/bin/../../lib\libm-elf.a(dunpack2.eo) (__dPropagateNaN)
c:/program files (x86)/microchip/xc16/v1.31/bin/bin/../../lib\libm-elf.a(dtype.eo)
                              c:/program files (x86)/microchip/xc16/v1.31/bin/bin/../../lib\libm-elf.a(dcompare.eo) (__dtype)
c:/program files (x86)/microchip/xc16/v1.31/bin/bin/../../lib\libm-elf.a(dunpack.eo)
                              c:/program files (x86)/microchip/xc16/v1.31/bin/bin/../../lib\libm-elf.a(dunpack2.eo) (__dunpack)
c:/program files (x86)/microchip/xc16/v1.31/bin/bin/../../lib\libm-elf.a(floatdidf.eo)
                              c:/program files (x86)/microchip/xc16/v1.31/bin/bin/../../lib\libm-elf.a(floatsidf.eo) (___floatdidf)
c:/program files (x86)/microchip/xc16/v1.31/bin/bin/../../lib\libm-elf.a(floatundidf.eo)
                              c:/program files (x86)/microchip/xc16/v1.31/bin/bin/../../lib\libm-elf.a(floatdidf.eo) (___floatundidf)


Selected CodeGuard Options:
  FGS:GWRP:OFF
  FGS:GSS:OFF

CodeGuard FLASH Memory:
  boot    (none)
  secure  (none)
  general 0x200 to 0x2abfe

CodeGuard RAM Memory:
  general 0x800 to 0x7fff
  secure  (none)
  boot    (none)


xc16-ld 1.31 (A)

Program Memory  [Origin = 0x200, Length = 0x2aa00]

section                    address   length (PC units)   length (bytes) (dec)
-------                    -------   -----------------   --------------------
.text                        0x200              0x2ffe          0x47fd  (18429)
.const                      0x31fe               0x6d0           0xa38  (2616)
.text                       0x38ce              0x3f92          0x5f5b  (24411)
.dinit                      0x7860               0x370           0x528  (1320)
.text                       0x7bd0              0x32de          0x4c4d  (19533)
.init.delay32               0xaeae                0x1c            0x2a  (42)

                 Total program memory used (bytes):        0x1032f  (66351) 25%


Ivt Memory  [Origin = 0x4, Length = 0xfc]

section                    address   length (PC units)   length (bytes) (dec)
-------                    -------   -----------------   --------------------
.ivt._OscillatorFail           0x6                 0x2             0x3  (3)
.ivt._AddressError             0x8                 0x2             0x3  (3)
.ivt._StackError               0xa                 0x2             0x3  (3)
.ivt._MathError                0xc                 0x2             0x3  (3)
.ivt._DMACError                0xe                 0x2             0x3  (3)
.ivt._IC1Interrupt            0x16                 0x2             0x3  (3)
.ivt._T1Interrupt             0x1a                 0x2             0x3  (3)
.ivt._DMA0Interrupt           0x1c                 0x2             0x3  (3)
.ivt._IC2Interrupt            0x1e                 0x2             0x3  (3)
.ivt._T3Interrupt             0x24                 0x2             0x3  (3)
.ivt._SPI1Interrupt           0x28                 0x2             0x3  (3)
.ivt._U1RXInterrupt           0x2a                 0x2             0x3  (3)
.ivt._U1TXInterrupt           0x2c                 0x2             0x3  (3)
.ivt._IC7Interrupt            0x40                 0x2             0x3  (3)
.ivt._IC8Interrupt            0x42                 0x2             0x3  (3)
.ivt._T4Interrupt             0x4a                 0x2             0x3  (3)
.ivt._T5Interrupt             0x4c                 0x2             0x3  (3)
.ivt._U2RXInterrupt           0x50                 0x2             0x3  (3)
.ivt._U2TXInterrupt           0x52                 0x2             0x3  (3)
.ivt._SPI2Interrupt           0x56                 0x2             0x3  (3)
.ivt._C1Interrupt             0x5a                 0x2             0x3  (3)
.ivt._IC3Interrupt            0x5e                 0x2             0x3  (3)
.ivt._IC4Interrupt            0x60                 0x2             0x3  (3)
.ivt._IC5Interrupt            0x62                 0x2             0x3  (3)
.ivt._IC6Interrupt            0x64                 0x2             0x3  (3)
.ivt._T6Interrupt             0x72                 0x2             0x3  (3)
.ivt._T7Interrupt             0x74                 0x2             0x3  (3)
.ivt._MI2C2Interrupt          0x78                 0x2             0x3  (3)
.ivt._T8Interrupt             0x7a                 0x2             0x3  (3)
.ivt._INT3Interrupt           0x7e                 0x2             0x3  (3)
.ivt._C2Interrupt             0x84                 0x2             0x3  (3)


Data Memory  [Origin = 0x800, Length = 0x7800]

section                    address      alignment gaps    total length  (dec)
-------                    -------      --------------    -------------------
.nbss                        0x800                   0           0x240  (576)
.ndata                       0xa40                   0             0xa  (10)
.nbss                        0xa4a                   0            0x14  (20)
.ndata                       0xa5e                   0             0xa  (10)
.nbss                        0xa68                   0            0x24  (36)
.ndata                       0xa8c                   0             0xa  (10)
.nbss                        0xa96                   0             0x4  (4)
_03EF284058f53da8            0xa9a                   0             0x4  (4)
.ndata                       0xa9e                   0             0x8  (8)
.nbss                        0xaa6                   0             0x4  (4)
.ndata                       0xaaa                   0             0x4  (4)
.nbss                        0xaae                   0             0x4  (4)
.ndata                       0xab2                   0             0x8  (8)
.nbss                        0xaba                   0             0x4  (4)
.ndata                       0xabe                   0             0x4  (4)
.nbss                        0xac2                   0             0x6  (6)
_03EF272058f53da8            0xac8                   0             0x2  (2)
_03EF28A058f53da8            0xaca                   0             0x2  (2)
.ndata                       0xacc                   0             0x2  (2)
.nbss                        0xace                   0             0x2  (2)
.ndata                       0xad0                   0             0x2  (2)
.nbss                        0xad2                   0             0x2  (2)
.ndata                       0xad4                   0             0x2  (2)
.nbss                        0xad6                   0             0x4  (4)
.bss                         0xada                   0           0x224  (548)
.data                        0xcfe                   0           0x102  (258)
.bss                         0xe00                   0           0x122  (290)
.data                        0xf22                   0            0x64  (100)
.bss                         0xf86                   0            0x78  (120)
.data                        0xffe                   0            0x34  (52)
.bss                        0x1032                   0            0x16  (22)
.bss                        0x1048                   0            0x24  (36)
.data                       0x106c                   0            0x22  (34)
.bss                        0x108e                   0            0x2c  (44)
.data                       0x10ba                   0             0x6  (6)
.bss                        0x10c0                   0             0xa  (10)
.data                       0x10ca                   0             0x4  (4)
.bss                        0x10ce                   0             0x2  (2)
.data                       0x10d0                   0             0x2  (2)
.bss                        0x10d2                   0             0x2  (2)
.heap                       0x10d4                   0           0x400  (1024)
_03F0772058f53da6           0x7fc0                   0             0xc  (12)
.bss                        0x7fcc                   0            0x14  (20)
_03F0760058f53da6           0x7fe0                   0             0xc  (12)
.bss                        0x7fec                   0            0x12  (18)
.data                       0x7ffe                   0             0x2  (2)

                 Total data memory used (bytes):          0xd14  (3348) 10%


Dynamic Memory Usage

region                     address                      maximum length  (dec)
------                     -------                      ---------------------
heap                        0x10d4                               0x400  (1024)
stack                       0x14d4                              0x6aec  (27372)

                 Maximum dynamic memory (bytes):         0x6eec  (28396)


External Symbols in Data Memory (by address):

                    0x0800                  _throttleFiltered
                    0x0804                  _speed_height
                    0x0808                  _pitchAltitudeAdjust
                    0x080a                  _filterManual
                    0x080c                  _desiredHeight
                    0x080e                  _hover_counter
                    0x0810                  _synthetic_throttle_counter
                    0x0812                  _z_filtered_flt
                    0x0816                  _z_filtered
                    0x0818                  _z_filtered32_flt
                    0x081c                  _z_filtered32
                    0x0820                  _target_z_filtered_flt
                    0x0824                  _target_z_filtered
                    0x0826                  _target_vz_filtered_flt
                    0x082a                  _target_vz_filtered
                    0x082c                  _vz_filtered_flt
                    0x0830                  _vz_filtered
                    0x0832                  _accz_filtered_flt
                    0x0836                  _accz_filtered
                    0x0838                  _hover_error_integral_z
                    0x083a                  _error_integral_z
                    0x083e                  _error_integral_vz
                    0x0842                  _error_integral_accz
                    0x0846                  _previous_z32
                    0x084a                  _failsafe_throttle_mode
                    0x084c                  _rampe_throttle
                    0x084e                  _hover_target_z
                    0x0850                  _hover_z
                    0x0852                  _hover_vz
                    0x0854                  _hover_accz
                    0x0856                  _hover_error_z
                    0x0858                  _hover_error_vz
                    0x085a                  _hover_error_integral_vz
                    0x085c                  _hover_error_accz
                    0x085e                  _hover_error_integral_accz
                    0x0860                  _hover_target_vz
                    0x0862                  _hover_target_accz
                    0x0864                  _invdeltafilterheight
                    0x0868                  _invdeltafiltervz
                    0x086c                  _sonar_distance
                    0x086e                  _sonar_height_to_ground
                    0x0870                  _good_sample_count
                    0x0871                  _is_init_failsafe
                    0x0872                  _is_in_hovering_failsafe
                    0x0874                  _no_readings_count
                    0x0876                  _distance_yaw_corr
                    0x0878                  _desired_roll
                    0x087a                  _desired_pitch
                    0x087c                  _desired_yaw
                    0x087e                  _roll_quad_control
                    0x0880                  _pitch_quad_control
                    0x0882                  _yaw_quad_control
                    0x0884                  _accel_feedback
                    0x0886                  _commanded_roll
                    0x0888                  _commanded_pitch
                    0x088a                  _commanded_yaw
                    0x088c                  _pitch_body_frame_control
                    0x088e                  _roll_body_frame_control
                    0x0890                  _earth_yaw
                    0x0892                  _earth_roll
                    0x0894                  _earth_pitch
                    0x0896                  _roll_error
                    0x0898                  _pitch_error
                    0x089a                  _yaw_error
                    0x089c                  _roll_intgrl
                    0x089e                  _pitch_intgrl
                    0x08a0                  _yaw_intgrl
                    0x08a2                  _roll_rate_error_delta_filt
                    0x08a4                  _pitch_rate_error_delta_filt
                    0x08a6                  _roll_rate_error_previous
                    0x08a8                  _pitch_rate_error_previous
                    0x08aa                  _roll_rate_error_delta_filt_flt
                    0x08ae                  _pitch_rate_error_delta_filt_flt
                    0x08b2                  _rampe_yaw
                    0x08b4                  _ptr
                    0x08b6                  _z_filt_debug
                    0x08ba                  _roll_quad_error_integral
                    0x08be                  _pitch_quad_error_integral
                    0x08c2                  _yaw_quad_error_integral
                    0x08c6                  _tilt_ki
                    0x08c8                  _tilt_kp
                    0x08ca                  _tilt_rate_kp
                    0x08cc                  _tilt_rate_kd
                    0x08ce                  _yaw_ki
                    0x08d0                  _yaw_kp
                    0x08d2                  _yaw_rate_ki
                    0x08d4                  _yaw_rate_kp
                    0x08d6                  _lat_gps
                    0x08da                  _long_gps
                    0x08de                  _alt_sl_gps
                    0x08e2                  _tow
                    0x08e6                  _sog_gps
                    0x08e8                  _cog_gps
                    0x08ea                  _climb_gps
                    0x08ec                  _week_no
                    0x08ee                  _as_sim
                    0x08f0                  _hdop
                    0x08f2                  _lat_origin
                    0x08f6                  _long_origin
                    0x08fa                  _alt_origin
                    0x08fe                  _svs
                    0x08ff                  _lat_cir
                    0x0900                  _cos_lat
                    0x0902                  _gps_data_age
                    0x0904                  _gps_out_buffer
                    0x0906                  _gps_out_buffer_length
                    0x0908                  _gps_out_index
                    0x090a                  _actual_dir
                    0x090c                  _ground_velocity_magnitudeXY
                    0x090e                  _forward_acceleration
                    0x0910                  _air_speed_magnitudeXY
                    0x0912                  _air_speed_3DGPS
                    0x0914                  _calculated_heading
                    0x091c                  _payloadlength
                    0x091e                  _store_index
                    0x0920                  _un
                    0x0921                  _svs_
                    0x0922                  _lat_gps_
                    0x0926                  _long_gps_
                    0x092a                  _alt_sl_gps_
                    0x092e                  _tow_
                    0x0932                  _nav_valid_
                    0x0934                  _nav_type_
                    0x0936                  _sog_gps_
                    0x0938                  _cog_gps_
                    0x093a                  _climb_gps_
                    0x093c                  _week_no_
                    0x093e                  _hdop_
                    0x0940                  _checksum_
                    0x0942                  _calculated_checksum
                    0x0944                  _IMUvelocityx
                    0x0948                  _IMUvelocityy
                    0x094c                  _IMUvelocityz
                    0x0950                  _IMUlocationx
                    0x0954                  _IMUlocationy
                    0x0958                  _IMUlocationz
                    0x095c                  _IMUintegralAccelerationx
                    0x0960                  _IMUintegralAccelerationy
                    0x0964                  _IMUintegralAccelerationz
                    0x0968                  _air_speed_3DIMU
                    0x096a                  _total_energy
                    0x096c                  _voltage_milis
                    0x096e                  _voltage_temp
                    0x0970                  _fp_high_byte
                    0x0971                  _fp_checksum
                    0x0972                  _sb_index
                    0x0974                  _end_index
                    0x0976                  _additional_int16_export1
                    0x0978                  _additional_int16_export2
                    0x097a                  _additional_int16_export3
                    0x097c                  _additional_int16_export4
                    0x097e                  _additional_int16_export5
                    0x0980                  _additional_int16_export6
                    0x0982                  _additional_int16_export7
                    0x0984                  _additional_int16_export8
                    0x0986                  _additional_int16_export9
                    0x0988                  _additional_int32_export1
                    0x098e                  _barometer_pressure_gnd
                    0x0992                  _barometer_temperature_gnd
                    0x0994                  _barometer_altitude
                    0x0998                  _barometer_agl_altitude
                    0x099c                  _barometer_pressure
                    0x09a0                  _barometer_temperature
                    0x09a2                  _sea_level_pressure
                    0x09a6                  _udb_pwm_sonar
                    0x09a8                  _failSafePulses
                    0x09aa                  _noisePulses
                    0x09ac                  _sonar_pwm_count
                    0x09be                  _togoal
                    0x09c2                  _tofinish_line
                    0x09c4                  _progress_to_goal
                    0x09c6                  _desired_dir
                    0x09c7                  _is_init_flightplan0
                    0x09c8                  _togoalx_flt
                    0x09cc                  _togoaly_flt
                    0x09d0                  _desired_bearing_over_ground
                    0x09d2                  _desired_bearing_over_ground_vector
                    0x09d6                  _pitchrate
                    0x09d8                  _navElevMix
                    0x09da                  _elevInput
                    0x09dc                  _hovering_pitch_dir
                    0x09de                  _pitch_error_integral
                    0x09e2                  _pitch_error_filtered_flt
                    0x09e6                  _pitch_error_filtered
                    0x09e8                  _pitch_hover_counter
                    0x09ea                  _hover_error_y
                    0x09ec                  _hover_error_integral_y
                    0x09ee                  _SPI1_data
                    0x09f0                  _SPI1_high
                    0x09f1                  _SPI1_low
                    0x09f2                  _SPI1_i
                    0x09f4                  _SPI1_j
                    0x09f6                  _SPI1_n
                    0x09f8                  _SPI2_data
                    0x09fa                  _SPI2_high
                    0x09fb                  _SPI2_low
                    0x09fc                  _SPI2_i
                    0x09fe                  _SPI2_j
                    0x0a00                  _SPI2_n
                    0x0a02                  _pitch_control
                    0x0a04                  _roll_control
                    0x0a06                  _yaw_control
                    0x0a08                  _throttle_control
                    0x0a0a                  _throttle_hover_control
                    0x0a0c                  _flap_control
                    0x0a0e                  _wind_gain
                    0x0a10                  _cam_pitch_servo_pwm_delta
                    0x0a12                  _cam_yaw_servo_pwm_delta
                    0x0a14                  _sonar_pitch_servo_pwm_delta
                    0x0a16                  _hovering_roll_dir
                    0x0a18                  _roll_error_integral
                    0x0a1c                  _roll_error_filtered_flt
                    0x0a20                  _roll_error_filtered
                    0x0a22                  _roll_hover_counter
                    0x0a24                  _hover_error_x
                    0x0a26                  _hover_error_integral_x
                    0x0a28                  _magMessage
                    0x0a2a                  _matrix_accum
                    0x0a36                  _spin_rate
                    0x0a3e                  _magFieldBodyMagnitudePrevious
                    0x0a40                  _magAlignment
                    0x0a52                  _barometer_callback
                    0x0a54                  _current_orientation
                    0x0a56                  _desired_behavior
                    0x0a58                  _cyclesUntilStartTriggerAction
                    0x0a5a                  _cyclesUntilStopTriggerAction
                    0x0a5c                  _currentTriggerActionValue
                    0x0a5e                  _aircraft_mass
                    0x0a60                  _max_thrust
                    0x0a62                  _nb_sample_wait
                    0x0a64                  _max_hover_alt
                    0x0a66                  _desiredSpeed
                    0x0a68                  _cpu_timer
                    0x0a6a                  __cpu_timer
                    0x0a6c                  _udb_heartbeat_counter
                    0x0a6e                  _outputNum
                    0x0a70                  _outputNum2
                    0x0a72                  _outputNum3
                    0x0a74                  _mpuCnt
                    0x0a76                  _mpuDAV
                    0x0a78                  _vref_adj
                    0x0a7a                  _dmaErrFlag
                    0x0a7c                  _dmaPWErrLoc
                    0x0a7e                  _dmaRWErrLoc
                    0x0a80                  _aileronbgain
                    0x0a82                  _elevatorbgain
                    0x0a84                  _rudderbgain
                    0x0a86                  _flags
                    0x0a88                  _waggle
                    0x0a8a                  _counter
                    0x0a90                  _stateS
                    0x0a92                  _SPI1_read_call_back
                    0x0a94                  _SPI2_read_call_back
                    0x0a96                  _sample_count
                    0x0a98                  _DmaBuffer
                    0x0a9a                  _trap_source
                    0x0aa2                  _sio_parse
                    0x0aa6                  _waypointIndex
                    0x0aa8                  _wp_inject_pos
                    0x0aaa                  _currentWaypointSet
                    0x0aac                  _numPointsInCurrentSet
                    0x0ab2                  _throttlemin
                    0x0ab4                  _throttlemax
                    0x0ab8                  _msg_parse
                    0x0aba                  _normalization_value
                    0x0abc                  _dcm_flags
                    0x0abe                  _toggle
                    0x0ac0                  _dead_reckon_clock
                    0x0ac2                  _udb_flags
                    0x0ac4                  _event_init_done
                    0x0ac6                  _defaultCorcon
                    0x0ac8                  _trap_flags
                    0x0aca                  _osc_fail_count
                    0x0acc                  _eeprom_control
                    0x0ad0                  _minimum_airspeed
                    0x0ad2                  _commanded_tilt_gain
                    0x0ad4                  _flap_min
                    0x0ad6                  _plane_to_north
                    0x0ada                  _serial_buffer
                    0x0cfe                  __Stdin
                    0x0d26                  __Stdout
                    0x0d4e                  __Stderr
                    0x0d76                  __Files
                    0x0e00                  _omegagyro
                    0x0e18                  _accelEarth
                    0x0e2a                  _omegaAccum
                    0x0e36                  _errorYawground
                    0x0e42                  _theta
                    0x0e48                  _magFieldEarth
                    0x0e4e                  _rmatPrevious
                    0x0e60                  _magFieldEarthNormalizedPrevious
                    0x0e66                  _magFieldBodyPrevious
                    0x0e6c                  _events
                    0x0ecc                  _mpu_data
                    0x0edc                  _udb_xaccel
                    0x0ee6                  _udb_yaccel
                    0x0ef0                  _udb_zaccel
                    0x0efa                  _udb_xrate
                    0x0f04                  _udb_yrate
                    0x0f0e                  _udb_zrate
                    0x0f18                  _mpu_temp
                    0x0f22                  _ggain
                    0x0f28                  _spin_axis
                    0x0f2e                  _rmat
                    0x0f52                  _gplane
                    0x0f58                  _dirovergndHGPS
                    0x0f5e                  _dirovergndHRmat
                    0x0f86                  _udb_magFieldBody
                    0x0f8c                  _udb_magOffset
                    0x0f92                  _rawMagCalib
                    0x0f98                  _magFieldRaw
                    0x0fa6                  _udb_pwIn
                    0x0fb6                  _udb_pwTrim
                    0x0fc6                  _udb_vcc
                    0x0fd0                  _udb_5v
                    0x0fda                  _udb_vref
                    0x1032                  _wp_inject
                    0x1048                  _GPSlocation
                    0x104e                  _GPSvelocity
                    0x105a                  _udb_pwOut
                    0x106c                  _target_orientation
                    0x107e                  _magGain
                    0x108e                  _goal
                    0x109e                  _pwManual
                    0x10ae                  _locationErrorEarth
                    0x10b4                  _velocityErrorEarth
                    0x10ba                  _view_location
                    0x10c0                  _camera_view
                    0x10c6                  __Aldata
                    0x10ca                  ___C30_UART
                    0x10cc                  __Size_block
                    0x10d2                  ___curbrk
                    0x7fc0                  _BufferB
                    0x7fe0                  _BufferA
                    0x7fec                  _estimatedWind

External Symbols in Data Memory (by name):

                    0x7fe0                  _BufferA
                    0x7fc0                  _BufferB
                    0x0a98                  _DmaBuffer
                    0x1048                  _GPSlocation
                    0x104e                  _GPSvelocity
                    0x095c                  _IMUintegralAccelerationx
                    0x0960                  _IMUintegralAccelerationy
                    0x0964                  _IMUintegralAccelerationz
                    0x0950                  _IMUlocationx
                    0x0954                  _IMUlocationy
                    0x0958                  _IMUlocationz
                    0x0944                  _IMUvelocityx
                    0x0948                  _IMUvelocityy
                    0x094c                  _IMUvelocityz
                    0x09ee                  _SPI1_data
                    0x09f0                  _SPI1_high
                    0x09f2                  _SPI1_i
                    0x09f4                  _SPI1_j
                    0x09f1                  _SPI1_low
                    0x09f6                  _SPI1_n
                    0x0a92                  _SPI1_read_call_back
                    0x09f8                  _SPI2_data
                    0x09fa                  _SPI2_high
                    0x09fc                  _SPI2_i
                    0x09fe                  _SPI2_j
                    0x09fb                  _SPI2_low
                    0x0a00                  _SPI2_n
                    0x0a94                  _SPI2_read_call_back
                    0x10c6                  __Aldata
                    0x0d76                  __Files
                    0x10cc                  __Size_block
                    0x0d4e                  __Stderr
                    0x0cfe                  __Stdin
                    0x0d26                  __Stdout
                    0x10ca                  ___C30_UART
                    0x10d2                  ___curbrk
                    0x0a6a                  __cpu_timer
                    0x0e18                  _accelEarth
                    0x0884                  _accel_feedback
                    0x0836                  _accz_filtered
                    0x0832                  _accz_filtered_flt
                    0x090a                  _actual_dir
                    0x0976                  _additional_int16_export1
                    0x0978                  _additional_int16_export2
                    0x097a                  _additional_int16_export3
                    0x097c                  _additional_int16_export4
                    0x097e                  _additional_int16_export5
                    0x0980                  _additional_int16_export6
                    0x0982                  _additional_int16_export7
                    0x0984                  _additional_int16_export8
                    0x0986                  _additional_int16_export9
                    0x0988                  _additional_int32_export1
                    0x0a80                  _aileronbgain
                    0x0912                  _air_speed_3DGPS
                    0x0968                  _air_speed_3DIMU
                    0x0910                  _air_speed_magnitudeXY
                    0x0a5e                  _aircraft_mass
                    0x08fa                  _alt_origin
                    0x08de                  _alt_sl_gps
                    0x092a                  _alt_sl_gps_
                    0x08ee                  _as_sim
                    0x0998                  _barometer_agl_altitude
                    0x0994                  _barometer_altitude
                    0x0a52                  _barometer_callback
                    0x099c                  _barometer_pressure
                    0x098e                  _barometer_pressure_gnd
                    0x09a0                  _barometer_temperature
                    0x0992                  _barometer_temperature_gnd
                    0x0942                  _calculated_checksum
                    0x0914                  _calculated_heading
                    0x0a10                  _cam_pitch_servo_pwm_delta
                    0x0a12                  _cam_yaw_servo_pwm_delta
                    0x10c0                  _camera_view
                    0x0940                  _checksum_
                    0x08ea                  _climb_gps
                    0x093a                  _climb_gps_
                    0x08e8                  _cog_gps
                    0x0938                  _cog_gps_
                    0x0888                  _commanded_pitch
                    0x0886                  _commanded_roll
                    0x0ad2                  _commanded_tilt_gain
                    0x088a                  _commanded_yaw
                    0x0900                  _cos_lat
                    0x0a8a                  _counter
                    0x0a68                  _cpu_timer
                    0x0a5c                  _currentTriggerActionValue
                    0x0aaa                  _currentWaypointSet
                    0x0a54                  _current_orientation
                    0x0a58                  _cyclesUntilStartTriggerAction
                    0x0a5a                  _cyclesUntilStopTriggerAction
                    0x0abc                  _dcm_flags
                    0x0ac0                  _dead_reckon_clock
                    0x0ac6                  _defaultCorcon
                    0x080c                  _desiredHeight
                    0x0a66                  _desiredSpeed
                    0x09d0                  _desired_bearing_over_ground
                    0x09d2                  _desired_bearing_over_ground_vector
                    0x0a56                  _desired_behavior
                    0x09c6                  _desired_dir
                    0x087a                  _desired_pitch
                    0x0878                  _desired_roll
                    0x087c                  _desired_yaw
                    0x0f58                  _dirovergndHGPS
                    0x0f5e                  _dirovergndHRmat
                    0x0876                  _distance_yaw_corr
                    0x0a7a                  _dmaErrFlag
                    0x0a7c                  _dmaPWErrLoc
                    0x0a7e                  _dmaRWErrLoc
                    0x0894                  _earth_pitch
                    0x0892                  _earth_roll
                    0x0890                  _earth_yaw
                    0x0acc                  _eeprom_control
                    0x09da                  _elevInput
                    0x0a82                  _elevatorbgain
                    0x0974                  _end_index
                    0x0e36                  _errorYawground
                    0x0842                  _error_integral_accz
                    0x083e                  _error_integral_vz
                    0x083a                  _error_integral_z
                    0x7fec                  _estimatedWind
                    0x0ac4                  _event_init_done
                    0x0e6c                  _events
                    0x09a8                  _failSafePulses
                    0x084a                  _failsafe_throttle_mode
                    0x080a                  _filterManual
                    0x0a86                  _flags
                    0x0a0c                  _flap_control
                    0x0ad4                  _flap_min
                    0x090e                  _forward_acceleration
                    0x0971                  _fp_checksum
                    0x0970                  _fp_high_byte
                    0x0f22                  _ggain
                    0x108e                  _goal
                    0x0870                  _good_sample_count
                    0x0f52                  _gplane
                    0x0902                  _gps_data_age
                    0x0904                  _gps_out_buffer
                    0x0906                  _gps_out_buffer_length
                    0x0908                  _gps_out_index
                    0x090c                  _ground_velocity_magnitudeXY
                    0x08f0                  _hdop
                    0x093e                  _hdop_
                    0x0854                  _hover_accz
                    0x080e                  _hover_counter
                    0x085c                  _hover_error_accz
                    0x085e                  _hover_error_integral_accz
                    0x085a                  _hover_error_integral_vz
                    0x0a26                  _hover_error_integral_x
                    0x09ec                  _hover_error_integral_y
                    0x0838                  _hover_error_integral_z
                    0x0858                  _hover_error_vz
                    0x0a24                  _hover_error_x
                    0x09ea                  _hover_error_y
                    0x0856                  _hover_error_z
                    0x0862                  _hover_target_accz
                    0x0860                  _hover_target_vz
                    0x084e                  _hover_target_z
                    0x0852                  _hover_vz
                    0x0850                  _hover_z
                    0x09dc                  _hovering_pitch_dir
                    0x0a16                  _hovering_roll_dir
                    0x0864                  _invdeltafilterheight
                    0x0868                  _invdeltafiltervz
                    0x0872                  _is_in_hovering_failsafe
                    0x0871                  _is_init_failsafe
                    0x09c7                  _is_init_flightplan0
                    0x08ff                  _lat_cir
                    0x08d6                  _lat_gps
                    0x0922                  _lat_gps_
                    0x08f2                  _lat_origin
                    0x10ae                  _locationErrorEarth
                    0x08da                  _long_gps
                    0x0926                  _long_gps_
                    0x08f6                  _long_origin
                    0x0a40                  _magAlignment
                    0x0a3e                  _magFieldBodyMagnitudePrevious
                    0x0e66                  _magFieldBodyPrevious
                    0x0e48                  _magFieldEarth
                    0x0e60                  _magFieldEarthNormalizedPrevious
                    0x0f98                  _magFieldRaw
                    0x107e                  _magGain
                    0x0a28                  _magMessage
                    0x0a2a                  _matrix_accum
                    0x0a64                  _max_hover_alt
                    0x0a60                  _max_thrust
                    0x0ad0                  _minimum_airspeed
                    0x0a74                  _mpuCnt
                    0x0a76                  _mpuDAV
                    0x0ecc                  _mpu_data
                    0x0f18                  _mpu_temp
                    0x0ab8                  _msg_parse
                    0x09d8                  _navElevMix
                    0x0934                  _nav_type_
                    0x0932                  _nav_valid_
                    0x0a62                  _nb_sample_wait
                    0x0874                  _no_readings_count
                    0x09aa                  _noisePulses
                    0x0aba                  _normalization_value
                    0x0aac                  _numPointsInCurrentSet
                    0x0e2a                  _omegaAccum
                    0x0e00                  _omegagyro
                    0x0aca                  _osc_fail_count
                    0x0a6e                  _outputNum
                    0x0a70                  _outputNum2
                    0x0a72                  _outputNum3
                    0x091c                  _payloadlength
                    0x0808                  _pitchAltitudeAdjust
                    0x088c                  _pitch_body_frame_control
                    0x0a02                  _pitch_control
                    0x0898                  _pitch_error
                    0x09e6                  _pitch_error_filtered
                    0x09e2                  _pitch_error_filtered_flt
                    0x09de                  _pitch_error_integral
                    0x09e8                  _pitch_hover_counter
                    0x089e                  _pitch_intgrl
                    0x0880                  _pitch_quad_control
                    0x08be                  _pitch_quad_error_integral
                    0x08a4                  _pitch_rate_error_delta_filt
                    0x08ae                  _pitch_rate_error_delta_filt_flt
                    0x08a8                  _pitch_rate_error_previous
                    0x09d6                  _pitchrate
                    0x0ad6                  _plane_to_north
                    0x0846                  _previous_z32
                    0x09c4                  _progress_to_goal
                    0x08b4                  _ptr
                    0x109e                  _pwManual
                    0x084c                  _rampe_throttle
                    0x08b2                  _rampe_yaw
                    0x0f92                  _rawMagCalib
                    0x0f2e                  _rmat
                    0x0e4e                  _rmatPrevious
                    0x088e                  _roll_body_frame_control
                    0x0a04                  _roll_control
                    0x0896                  _roll_error
                    0x0a20                  _roll_error_filtered
                    0x0a1c                  _roll_error_filtered_flt
                    0x0a18                  _roll_error_integral
                    0x0a22                  _roll_hover_counter
                    0x089c                  _roll_intgrl
                    0x087e                  _roll_quad_control
                    0x08ba                  _roll_quad_error_integral
                    0x08a2                  _roll_rate_error_delta_filt
                    0x08aa                  _roll_rate_error_delta_filt_flt
                    0x08a6                  _roll_rate_error_previous
                    0x0a84                  _rudderbgain
                    0x0a96                  _sample_count
                    0x0972                  _sb_index
                    0x09a2                  _sea_level_pressure
                    0x0ada                  _serial_buffer
                    0x0aa2                  _sio_parse
                    0x08e6                  _sog_gps
                    0x0936                  _sog_gps_
                    0x086c                  _sonar_distance
                    0x086e                  _sonar_height_to_ground
                    0x0a14                  _sonar_pitch_servo_pwm_delta
                    0x09ac                  _sonar_pwm_count
                    0x0804                  _speed_height
                    0x0f28                  _spin_axis
                    0x0a36                  _spin_rate
                    0x0a90                  _stateS
                    0x091e                  _store_index
                    0x08fe                  _svs
                    0x0921                  _svs_
                    0x0810                  _synthetic_throttle_counter
                    0x106c                  _target_orientation
                    0x082a                  _target_vz_filtered
                    0x0826                  _target_vz_filtered_flt
                    0x0824                  _target_z_filtered
                    0x0820                  _target_z_filtered_flt
                    0x0e42                  _theta
                    0x0800                  _throttleFiltered
                    0x0a08                  _throttle_control
                    0x0a0a                  _throttle_hover_control
                    0x0ab4                  _throttlemax
                    0x0ab2                  _throttlemin
                    0x08c6                  _tilt_ki
                    0x08c8                  _tilt_kp
                    0x08cc                  _tilt_rate_kd
                    0x08ca                  _tilt_rate_kp
                    0x09c2                  _tofinish_line
                    0x0abe                  _toggle
                    0x09be                  _togoal
                    0x09c8                  _togoalx_flt
                    0x09cc                  _togoaly_flt
                    0x096a                  _total_energy
                    0x08e2                  _tow
                    0x092e                  _tow_
                    0x0ac8                  _trap_flags
                    0x0a9a                  _trap_source
                    0x0fd0                  _udb_5v
                    0x0ac2                  _udb_flags
                    0x0a6c                  _udb_heartbeat_counter
                    0x0f86                  _udb_magFieldBody
                    0x0f8c                  _udb_magOffset
                    0x0fa6                  _udb_pwIn
                    0x105a                  _udb_pwOut
                    0x0fb6                  _udb_pwTrim
                    0x09a6                  _udb_pwm_sonar
                    0x0fc6                  _udb_vcc
                    0x0fda                  _udb_vref
                    0x0edc                  _udb_xaccel
                    0x0efa                  _udb_xrate
                    0x0ee6                  _udb_yaccel
                    0x0f04                  _udb_yrate
                    0x0ef0                  _udb_zaccel
                    0x0f0e                  _udb_zrate
                    0x0920                  _un
                    0x10b4                  _velocityErrorEarth
                    0x10ba                  _view_location
                    0x096c                  _voltage_milis
                    0x096e                  _voltage_temp
                    0x0a78                  _vref_adj
                    0x0830                  _vz_filtered
                    0x082c                  _vz_filtered_flt
                    0x0a88                  _waggle
                    0x0aa6                  _waypointIndex
                    0x08ec                  _week_no
                    0x093c                  _week_no_
                    0x0a0e                  _wind_gain
                    0x1032                  _wp_inject
                    0x0aa8                  _wp_inject_pos
                    0x0a06                  _yaw_control
                    0x089a                  _yaw_error
                    0x08a0                  _yaw_intgrl
                    0x08ce                  _yaw_ki
                    0x08d0                  _yaw_kp
                    0x0882                  _yaw_quad_control
                    0x08c2                  _yaw_quad_error_integral
                    0x08d2                  _yaw_rate_ki
                    0x08d4                  _yaw_rate_kp
                    0x08b6                  _z_filt_debug
                    0x0816                  _z_filtered
                    0x081c                  _z_filtered32
                    0x0818                  _z_filtered32_flt
                    0x0812                  _z_filtered_flt

External Symbols in Program Memory (by address):

                  0x000200                  __resetPRI
                  0x00023c                  __psv_init
                  0x000252                  __data_init_standard
                  0x000252                  __data_init
                  0x000384                  __DefaultInterrupt
                  0x000536                  _MatrixAdd
                  0x000576                  _MatrixMultiply
                  0x0005f0                  _MatrixScale
                  0x00062c                  _MatrixSubtract
                  0x00067a                  _MatrixTranspose
                  0x0006c2                  _VectorAdd
                  0x000700                  _VectorConvolve
                  0x0007f8                  _VectorCopy
                  0x000808                  _VectorCorrelate
                  0x000838                  _VectorDotProduct
                  0x000872                  _VectorMax
                  0x00088c                  _VectorMin
                  0x0008a6                  _VectorMultiply
                  0x0008e2                  _VectorNegate
                  0x000922                  _VectorPower
                  0x00095a                  _VectorScale
                  0x000996                  _VectorSubtract
                  0x0009e2                  _VectorZeroPad
                  0x000a00                  _CloseSPI1
                  0x000a08                  _CloseSPI2
                  0x000a10                  _ConfigIntSPI1
                  0x000a34                  _ConfigIntSPI2
                  0x000a58                  _OpenSPI1
                  0x000a60                  _OpenSPI2
                  0x000a6a                  ___subsf3
                  0x000a6c                  ___addsf3
                  0x000b26                  ___divsf3
                  0x000baa                  ___divsi3
                  0x000bc8                  ___fixsfsi
                  0x000c0a                  ___fixunssfsi
                  0x000c40                  ___floatsisf
                  0x000c46                  ___floatunsisf
                  0x000c4a                  __fpack
                  0x000c96                  __funpack
                  0x000cc0                  __funpack2
                  0x000cd0                  __fPropagateNaN
                  0x000ce2                  __fbopExit
                  0x000cea                  __fbopReturnNaN
                  0x000cf0                  ___mulsf3
                  0x000d58                  _powf
                  0x000f1e                  ___udivsi3
                  0x000f8a                  ___udivmoddi3
                  0x001070                  ___udivdi3
                  0x00107e                  ___umoddi3
                  0x001086                  ___divdi3
                  0x0010e6                  ___moddi3
                  0x001142                  __frexpf
                  0x00115c                  _expf
                  0x001220                  __fchop
                  0x00126e                  ___eqsf2
                  0x00126e                  ___lesf2
                  0x00126e                  ___ltsf2
                  0x001272                  ___gtsf2
                  0x001272                  ___gesf2
                  0x001276                  ___floatdisf
                  0x001296                  ___floatundisf
                  0x0012f4                  _ldexpf
                  0x001338                  _logf
                  0x0013e6                  __fcompare
                  0x00141c                  _calloc
                  0x0014a8                  _malloc
                  0x0014fc                  _memset
                  0x00150a                  _strlen
                  0x001516                  __Getmem
                  0x00152a                  vsnprint.XX_eo:_prout
                  0x00154c                  _vsnprintf
                  0x00156c                  __Printf
                  0x0016d0                  __Putfld
                  0x00199a                  _strchr
                  0x0019b8                  __Vacopy
                  0x0019bc                  printf_cdnopuxX.XXeo:_prout
                  0x0019d8                  __printf_cdnopuxX
                  0x0019e8                  ___Printf_cdnopuxX
                  0x001b4c                  ___Putfld_cdnopuxX
                  0x001d5c                  _free
                  0x001dc0                  _fwrite
                  0x001e68                  _memchr
                  0x001e7c                  _memcpy
                  0x001e8a                  __Fwprep
                  0x001f18                  __Ldtob
                  0x00230a                  __LDunscale
                  0x00235e                  __Litob
                  0x0025bc                  __Puttxt
                  0x002738                  __Closreg
                  0x00274a                  _fclose
                  0x0027da                  fclose.XX_elo:_closeall
                  0x0027fa                  __DNKfflush
                  0x00286e                  _ldiv
                  0x002898                  __Atexit
                  0x0028b0                  __Dnorm
                  0x002948                  __LDscale
                  0x002a3e                  __Genld
                  0x002ca2                  _div
                  0x002cc0                  ___eqdf2
                  0x002cc0                  ___ledf2
                  0x002cc0                  ___ltdf2
                  0x002cca                  ___gtdf2
                  0x002cca                  ___gedf2
                  0x002cd4                  ___divdf3
                  0x002d88                  __dpack
                  0x002de0                  __dunpack2
                  0x002e02                  __dreturnNaN
                  0x002e08                  __dunpack2exit
                  0x002e12                  ___extendsfdf2
                  0x002e50                  ___fixdfsi
                  0x002ea8                  ___floatsidf
                  0x002eae                  ___muldf3
                  0x002f98                  ___subdf3
                  0x002f9c                  ___umodsi3
                  0x002fa2                  ___mulp32peds3
                  0x002fa2                  ___mulp32eds3
                  0x002fa2                  ___mulsi3
                  0x002fae                  ___adddf3
                  0x0030a8                  __dcompare
                  0x0030fa                  __dPropagateNaN
                  0x003116                  __dtype
                  0x00313a                  __dunpack
                  0x003188                  ___floatdidf
                  0x0031a8                  ___floatundidf
                  0x00360c                  _bin_mode
                  0x003628                  _mode
                  0x003632                  _mode_length
                  0x003634                  _msg41parse
                  0x0036ec                  _sintab
                  0x00376e                  _sga_coefficients
                  0x0037c8                  _waypoints
                  0x0037de                  _rtlWaypoints
                  0x0037f4                  _wp_inject_byte_order
                  0x00380a                  _hoverthrottlemax
                  0x00380c                  _hoverthrottlemin
                  0x00380e                  _hoverthrottleoffset
                  0x003810                  _invdeltafiltersonar
                  0x003814                  _invdeltafiltertargetz
                  0x003818                  _invdeltafilterbaro
                  0x00381c                  _invdeltafilteraccel
                  0x003820                  _hovertargetheightmin
                  0x003822                  _hovertargetheightmax
                  0x003824                  _hovertargetvzmin
                  0x003826                  _hovertargetvzmax
                  0x003828                  _limittargetvz
                  0x00382a                  _limittargetaccz
                  0x00382c                  _hoverthrottlezkp
                  0x00382e                  _hoverthrottlezki
                  0x003830                  _limitintegralz
                  0x003834                  _hoverthrottlevzkp
                  0x003836                  _hoverthrottlevzki
                  0x003838                  _limitintegralvz
                  0x00383c                  _hoverthrottleacczkp
                  0x00383e                  _hoverthrottleacczki
                  0x003840                  _limitintegralaccz
                  0x003878                  _pitchgain
                  0x00387a                  _pitchkd
                  0x00387c                  _rudderElevMixGain
                  0x00387e                  _rollElevMixGain
                  0x003880                  _hoverpitchToWPkp
                  0x003882                  _hoverpitchToWPki
                  0x003884                  _limitintegralpitchToWP
                  0x003888                  _invdeltafilterpitch
                  0x00388c                  _pitch_servo_high_ratio
                  0x00388e                  _yaw_servo_high_ratio
                  0x003890                  _tan_pitch_in_stabilized_mode
                  0x003892                  _pitch_offset_centred_pwm
                  0x003894                  _yaw_offset_centred_pwm
                  0x003896                  _pitch_servo_pwm_max
                  0x003898                  _pitch_servo_pwm_min
                  0x00389a                  _yaw_servo_pwm_max
                  0x00389c                  _yaw_servo_pwm_min
                  0x00389e                  _yawkdail
                  0x0038a0                  _rollkp
                  0x0038a2                  _rollkd
                  0x0038a4                  _hoverrollToWPkp
                  0x0038a6                  _hoverrollToWPki
                  0x0038a8                  _limitintegralrollToWP
                  0x0038ac                  _invdeltafilterroll
                  0x0038b0                  _sonar_pitch_servo_high_ratio
                  0x0038b2                  _sonar_tan_pitch_in_stabilized_mode
                  0x0038b4                  _sonar_pitch_offset_centred_pwm
                  0x0038b6                  _sonar_pitch_offset_pwm
                  0x0038b8                  _sonar_pitch_servo_pwm_max
                  0x0038ba                  _sonar_pitch_servo_pwm_min
                  0x0038bc                  _yawkdrud
                  0x0038be                  _rollkprud
                  0x0038c0                  _rollkdrud
                  0x0038c6                  _yawkpail
                  0x0038c8                  _yawkprud
                  0x0038ca                  _max_tilt
                  0x0038cc                  _yaw_command_gain
                  0x0038ce                  _dcm_init_rmat
                  0x003994                  _read_gyros
                  0x003a36                  _read_accel
                  0x003d14                  _MatrixRotate
                  0x003e1c                  _matrix_normalize
                  0x004532                  _udb_magnetometer_callback
                  0x004738                  _dcm_run_imu_step
                  0x00475a                  _sine
                  0x0047b6                  _arcsine
                  0x004858                  _cosine
                  0x004866                  _rotate_2D_vector_by_vector
                  0x0048d4                  _rotate_2D_long_vector_by_vector
                  0x004932                  _rotate_2D_vector_by_angle
                  0x00494e                  _rotate
                  0x0049b8                  _rect_to_polar
                  0x004a6c                  _rect_to_polar16
                  0x004b4a                  _sqrt_int
                  0x004bb2                  _sqrt_long
                  0x004c58                  _vector2_mag
                  0x004c78                  _vector3_mag
                  0x004ca4                  _vector2_normalize
                  0x004d0e                  _vector3_normalize
                  0x004da4                  _long_scale
                  0x004e32                  _limit_value
                  0x004e5c                  _compute_pi_block
                  0x004f06                  _IIR_Filter
                  0x004f86                  _exponential_filter
                  0x004ffc                  _exponential_filter32
                  0x005072                  _ms_init
                  0x0050a2                  _sga_filter
                  0x00516c                  _excess_energy_height
                  0x005252                  _altitudeCntrl
                  0x005270                  _set_throttle_control
                  0x0052d0                  _set_throttle_hover_control
                  0x005330                  _hovering_failsafe
                  0x00534c                  _setTargetAltitude
                  0x005358                  _normalAltitudeCntrl
                  0x0055cc                  _manualThrottle
                  0x00560e                  _manualHoverThrottle
                  0x005650                  _compute_vz_alt_sensor
                  0x0056c6                  _hoverAltitudeCntrl
                  0x005af0                  _calculate_sonar_height_above_ground
                  0x005b62                  _motorCntrl
                  0x0061b0                  _rxBarometer
                  0x0063a8                  _ReadBarCalib_callback
                  0x0066e0                  _ReadBarTemp_callback
                  0x006710                  _ReadBarPres_callback
                  0x00678a                  _init_serial
                  0x0067b8                  _udb_serial_callback_received_byte
                  0x0067c6                  _sio_newMsg
                  0x0067f4                  _sio_voltage_high
                  0x006808                  _sio_voltage_low
                  0x006824                  _hex_char_val
                  0x00685a                  _sio_fp_data
                  0x0068b0                  _sio_fp_checksum
                  0x0068f4                  _serial_output
                  0x006934                  _udb_serial_callback_get_byte_to_send
                  0x006956                  _serial_output_8hz
                  0x006ce6                  _dcm_callback_gps_location_updated
                  0x006cfa                  _set_goal
                  0x006d52                  _update_goal_alt
                  0x006d5e                  _process_flightplan
                  0x006d80                  _compute_bearing_to_goal
                  0x006f3e                  _wind_gain_adjustment
                  0x006f46                  _determine_navigation_deflection
                  0x00709a                  _compute_hovering_dir
                  0x00711e                  _udb_init_capture
                  0x007210                  _set_udb_pwIn
                  0x007258                  __IC1Interrupt
                  0x0072a8                  __IC2Interrupt
                  0x0072f8                  __IC3Interrupt
                  0x007348                  __IC4Interrupt
                  0x007398                  __IC5Interrupt
                  0x0073e8                  __IC6Interrupt
                  0x007438                  __IC7Interrupt
                  0x007488                  __IC8Interrupt
                  0x0074ce                  _I2C2_Normal
                  0x0074fc                  _I2C2_Reset
                  0x007564                  _I2C2_trigger_service
                  0x007570                  build/default/production/_ext/1077454706/I2C2.o:_serviceI2C2
                  0x007586                  __MI2C2Interrupt
                  0x0075ea                  _I2C2_Write
                  0x007630                  _I2C2_Read
                  0x007678                  _I2C2_checkACK
                  0x0076b4                  build/default/production/_ext/1077454706/I2C2.o:_isr_startWrite
                  0x0076d0                  build/default/production/_ext/1077454706/I2C2.o:_isr_writeAddress
                  0x0076e6                  build/default/production/_ext/1077454706/I2C2.o:_isr_writeCommandData
                  0x007730                  build/default/production/_ext/1077454706/I2C2.o:_isr_writeData
                  0x00776c                  build/default/production/_ext/1077454706/I2C2.o:_isr_writeStop
                  0x007778                  build/default/production/_ext/1077454706/I2C2.o:_isr_doneWrite
                  0x00778c                  build/default/production/_ext/1077454706/I2C2.o:_isr_readStart
                  0x00779c                  build/default/production/_ext/1077454706/I2C2.o:_isr_readAddress
                  0x0077cc                  build/default/production/_ext/1077454706/I2C2.o:_isr_recen
                  0x0077e6                  build/default/production/_ext/1077454706/I2C2.o:_isr_rerecen
                  0x0077f2                  build/default/production/_ext/1077454706/I2C2.o:_isr_recstore
                  0x007820                  build/default/production/_ext/1077454706/I2C2.o:_isr_stopRead
                  0x00782c                  build/default/production/_ext/1077454706/I2C2.o:_isr_idle
                  0x007832                  build/default/production/_ext/1077454706/I2C2.o:_isr_doneRead
                  0x007bd0                  _wp_to_relative
                  0x007c5a                  _init_flightplan
                  0x007cb6                  _use_fixed_origin
                  0x007cbe                  _get_fixed_origin
                  0x007d20                  _next_waypoint
                  0x007e26                  _run_flightplan
                  0x007ecc                  _flightplan_live_begin
                  0x007ed4                  _flightplan_live_received_byte
                  0x007f04                  _flightplan_live_commit
                  0x007f18                  _dead_reckon
                  0x0081fc                  _init_states
                  0x008212                  _udb_callback_radio_did_turn_off
                  0x00821a                  _udb_background_callback_periodic
                  0x008326                  build/default/production/_ext/1472/states.o:_startS
                  0x00832e                  build/default/production/_ext/1472/states.o:_calibrateS
                  0x00836c                  build/default/production/_ext/1472/states.o:_acquiringS
                  0x0083d6                  build/default/production/_ext/1472/states.o:_manualS
                  0x008418                  build/default/production/_ext/1472/states.o:_stabilizedS
                  0x008456                  build/default/production/_ext/1472/states.o:_waypointS
                  0x00849c                  build/default/production/_ext/1472/states.o:_returnS
                  0x0084d8                  _initSPI1_master16
                  0x00851a                  _writeSPI1reg16
                  0x00854a                  _no_call_back
                  0x008550                  _readSPI1_burst16n
                  0x008582                  __SPI1Interrupt
                  0x008632                  _initSPI2_master16
                  0x008674                  _writeSPI2reg16
                  0x0086b8                  _readSPI2_burst16n
                  0x0086e8                  __SPI2Interrupt
                  0x008796                  _rxMagnetometer
                  0x008898                  build/default/production/_ext/1077454706/magnetometer.o:_I2C_callback
                  0x008a2a                  _HILSIM_MagData
                  0x008a38                  _udb_init_GPS
                  0x008a96                  _udb_gps_set_rate
                  0x008ac0                  _udb_gps_check_rate
                  0x008af6                  _udb_gps_start_sending_data
                  0x008afe                  __U1TXInterrupt
                  0x008b38                  __U1RXInterrupt
                  0x008b74                  _udb_init_USART
                  0x008bd2                  _udb_serial_set_rate
                  0x008bfc                  _udb_serial_check_rate
                  0x008c32                  _udb_serial_start_sending_data
                  0x008c3a                  __U2TXInterrupt
                  0x008c74                  __U2RXInterrupt
                  0x008cb0                  _compute_pot_order
                  0x008cec                  _servoMix
                  0x008e54                  _sonarServoMix
                  0x008e78                  _cameraServoMix
                  0x008f18                  _gpsoutbin
                  0x008f32                  _gpsoutline
                  0x008f4a                  _udb_gps_callback_get_byte_to_send
                  0x008f74                  _udb_gps_callback_received_byte
                  0x008f82                  _udb_background_callback_triggered
                  0x009178                  _estimateWind
                  0x0093b6                  _udb_init_pwm
                  0x00942c                  _udb_set_action_state
                  0x009446                  _start_pwm_outputs
                  0x009458                  _start_pwm_outputs_2
                  0x00946a                  _start_pwm_outputs_3
                  0x00947c                  __T4Interrupt
                  0x0094d8                  __T3Interrupt
                  0x009536                  __T8Interrupt
                  0x0095e0                  _udb_eeprom_init
                  0x0095ea                  _bstart
                  0x0095fe                  _bstop
                  0x009612                  _bit_out
                  0x00963c                  _bit_in
                  0x009672                  _byte_out
                  0x00969c                  _byte_in
                  0x0096c6                  _ACK_Poll
                  0x0096e0                  _eeprom_ByteWrite
                  0x009706                  _eeprom_PageWrite
                  0x009744                  _eeprom_ByteRead
                  0x009776                  _eeprom_SequentialRead
                  0x0097d4                  _pitchCntrl
                  0x0097f0                  _normalPitchCntrl
                  0x0098d4                  _hoverPitchCntrl
                  0x0099bc                  _register_event
                  0x0099ca                  _register_event_p
                  0x009a16                  _trigger_event
                  0x009a64                  _init_events
                  0x009ac2                  __C2Interrupt
                  0x009b2c                  __C1Interrupt
                  0x009b96                  _rollCntrl
                  0x009bb0                  _normalRollCntrl
                  0x009c74                  _hoverRollCntrl
                  0x009d60                  _gps_nav_valid
                  0x009d72                  _gps_startup_sequence
                  0x009db8                  _msg_B3
                  0x009dcc                  _msg_A0
                  0x009de8                  _msg_A2
                  0x009dfa                  _msg_PL1
                  0x009e12                  _msg_PL2
                  0x009e48                  _msg_MSG41
                  0x009e8e                  _msg_MSGU
                  0x009eb6                  _msg_B0
                  0x009ee6                  _commit_gps_data
                  0x009f24                  _udb_init_clock
                  0x009f8e                  __T1Interrupt
                  0x00a008                  _udb_background_trigger
                  0x00a010                  __T7Interrupt
                  0x00a03a                  _udb_cpu_load
                  0x00a04a                  __T5Interrupt
                  0x00a066                  __T6Interrupt
                  0x00a0de                  _init_behavior
                  0x00a0ee                  _setBehavior
                  0x00a112                  _canStabilizeInverted
                  0x00a11a                  _canStabilizeHover
                  0x00a130                  _updateBehavior
                  0x00a1fe                  _updateTriggerAction
                  0x00a246                  _triggerActionSetValue
                  0x00a254                  _udb_init_ADC
                  0x00a314                  __DMA0Interrupt
                  0x00a3c6                  _dcm_init
                  0x00a3d4                  _dcm_run_init_step
                  0x00a402                  _udb_callback_read_sensors
                  0x00a410                  _do_I2C_stuff
                  0x00a444                  _udb_servo_callback_prepare_outputs
                  0x00a478                  _dcm_calibrate
                  0x00a490                  _dcm_set_origin_location
                  0x00a4ce                  _dcm_absolute_to_relative
                  0x00a52a                  _init_servoPrepare
                  0x00a5b0                  _dcm_servo_callback_prepare_outputs
                  0x00a62c                  _manualPassthrough
                  0x00a64c                  _MPU6000_init16
                  0x00a6d2                  _process_MPU_data
                  0x00a6f8                  _MPU6000_read
                  0x00a710                  __INT3Interrupt
                  0x00a738                  _MPU6000_print
                  0x00a768                  _get_barometer_temperature
                  0x00a770                  _get_barometer_pressure
                  0x00a77a                  _get_barometer_altitude
                  0x00a784                  _get_barometer_agl_altitude
                  0x00a78e                  _altimeter_calibrate
                  0x00a7e0                  _udb_barometer_callback
                  0x00a7f6                  _estBaroAltitude
                  0x00a870                  _get_reset_flags
                  0x00a886                  _configureDigitalIO
                  0x00a91e                  _init_leds
                  0x00a934                  _mcu_init
                  0x00a95e                  _reset
                  0x00a978                  __OscillatorFail
                  0x00a9a4                  __AddressError
                  0x00a9ca                  __StackError
                  0x00a9f0                  __MathError
                  0x00aa16                  __DMACError
                  0x00aa3c                  _yawCntrl
                  0x00aa56                  _normalYawCntrl
                  0x00aadc                  _hoverYawCntrl
                  0x00aafc                  _flight_mode_switch_manual
                  0x00ab0a                  _flight_mode_switch_stabilize
                  0x00ab18                  _flight_mode_switch_waypoints
                  0x00ab26                  _flight_mode_switch_2pos_poll
                  0x00ab2c                  _flight_mode_switch_check_set
                  0x00abbc                  _udb_init
                  0x00abf0                  _udb_run
                  0x00abf6                  _udb_a2d_record_offsets
                  0x00ac18                  _udb_servo_record_trims
                  0x00ac40                  _udb_servo_pulsesat
                  0x00ac6e                  _calculate_analog_sensor_values
                  0x00ac74                  _cam_pitchServoLimit
                  0x00ac9e                  _cam_yawServoLimit
                  0x00acc8                  _set_camera_view
                  0x00ace0                  _compute_camera_view
                  0x00acfe                  _cameraInit
                  0x00ad10                  _cameraCntrl
                  0x00ad16                  _sonar_pitchServoLimit
                  0x00ad40                  _sonarInit
                  0x00ad4a                  _sonarCntrl
                  0x00ad90                  _dcm_enable_yaw_drift_correction
                  0x00adae                  _estYawDrift
                  0x00ae08                  _get_geo_heading_angle
                  0x00ae4a                  _main
                  0x00ae84                  _SP_start
                  0x00ae88                  _SP_limit
                  0x00ae8c                  _SP_current
                  0x00ae90                  _getErrLoc
                  0x00aea6                  _gentrap
                  0x00aeae                  ___delay32
                  0xf80004                  __FGS.sec

External Symbols in Program Memory (by name):

                  0x0096c6                  _ACK_Poll
                  0x000a00                  _CloseSPI1
                  0x000a08                  _CloseSPI2
                  0x000a10                  _ConfigIntSPI1
                  0x000a34                  _ConfigIntSPI2
                  0x008a2a                  _HILSIM_MagData
                  0x0074ce                  _I2C2_Normal
                  0x007630                  _I2C2_Read
                  0x0074fc                  _I2C2_Reset
                  0x0075ea                  _I2C2_Write
                  0x007678                  _I2C2_checkACK
                  0x007564                  _I2C2_trigger_service
                  0x004f06                  _IIR_Filter
                  0x00a64c                  _MPU6000_init16
                  0x00a738                  _MPU6000_print
                  0x00a6f8                  _MPU6000_read
                  0x000536                  _MatrixAdd
                  0x000576                  _MatrixMultiply
                  0x003d14                  _MatrixRotate
                  0x0005f0                  _MatrixScale
                  0x00062c                  _MatrixSubtract
                  0x00067a                  _MatrixTranspose
                  0x000a58                  _OpenSPI1
                  0x000a60                  _OpenSPI2
                  0x0063a8                  _ReadBarCalib_callback
                  0x006710                  _ReadBarPres_callback
                  0x0066e0                  _ReadBarTemp_callback
                  0x00ae8c                  _SP_current
                  0x00ae88                  _SP_limit
                  0x00ae84                  _SP_start
                  0x0006c2                  _VectorAdd
                  0x000700                  _VectorConvolve
                  0x0007f8                  _VectorCopy
                  0x000808                  _VectorCorrelate
                  0x000838                  _VectorDotProduct
                  0x000872                  _VectorMax
                  0x00088c                  _VectorMin
                  0x0008a6                  _VectorMultiply
                  0x0008e2                  _VectorNegate
                  0x000922                  _VectorPower
                  0x00095a                  _VectorScale
                  0x000996                  _VectorSubtract
                  0x0009e2                  _VectorZeroPad
                  0x00a9a4                  __AddressError
                  0x002898                  __Atexit
                  0x009b2c                  __C1Interrupt
                  0x009ac2                  __C2Interrupt
                  0x002738                  __Closreg
                  0x00a314                  __DMA0Interrupt
                  0x00aa16                  __DMACError
                  0x0027fa                  __DNKfflush
                  0x000384                  __DefaultInterrupt
                  0x0028b0                  __Dnorm
                  0xf80004                  __FGS.sec
                  0x001e8a                  __Fwprep
                  0x002a3e                  __Genld
                  0x001516                  __Getmem
                  0x007258                  __IC1Interrupt
                  0x0072a8                  __IC2Interrupt
                  0x0072f8                  __IC3Interrupt
                  0x007348                  __IC4Interrupt
                  0x007398                  __IC5Interrupt
                  0x0073e8                  __IC6Interrupt
                  0x007438                  __IC7Interrupt
                  0x007488                  __IC8Interrupt
                  0x00a710                  __INT3Interrupt
                  0x002948                  __LDscale
                  0x00230a                  __LDunscale
                  0x001f18                  __Ldtob
                  0x00235e                  __Litob
                  0x007586                  __MI2C2Interrupt
                  0x00a9f0                  __MathError
                  0x00a978                  __OscillatorFail
                  0x00156c                  __Printf
                  0x0016d0                  __Putfld
                  0x0025bc                  __Puttxt
                  0x008582                  __SPI1Interrupt
                  0x0086e8                  __SPI2Interrupt
                  0x00a9ca                  __StackError
                  0x009f8e                  __T1Interrupt
                  0x0094d8                  __T3Interrupt
                  0x00947c                  __T4Interrupt
                  0x00a04a                  __T5Interrupt
                  0x00a066                  __T6Interrupt
                  0x00a010                  __T7Interrupt
                  0x009536                  __T8Interrupt
                  0x008b38                  __U1RXInterrupt
                  0x008afe                  __U1TXInterrupt
                  0x008c74                  __U2RXInterrupt
                  0x008c3a                  __U2TXInterrupt
                  0x0019b8                  __Vacopy
                  0x0019e8                  ___Printf_cdnopuxX
                  0x001b4c                  ___Putfld_cdnopuxX
                  0x002fae                  ___adddf3
                  0x000a6c                  ___addsf3
                  0x00aeae                  ___delay32
                  0x002cd4                  ___divdf3
                  0x001086                  ___divdi3
                  0x000b26                  ___divsf3
                  0x000baa                  ___divsi3
                  0x002cc0                  ___eqdf2
                  0x00126e                  ___eqsf2
                  0x002e12                  ___extendsfdf2
                  0x002e50                  ___fixdfsi
                  0x000bc8                  ___fixsfsi
                  0x000c0a                  ___fixunssfsi
                  0x003188                  ___floatdidf
                  0x001276                  ___floatdisf
                  0x002ea8                  ___floatsidf
                  0x000c40                  ___floatsisf
                  0x0031a8                  ___floatundidf
                  0x001296                  ___floatundisf
                  0x000c46                  ___floatunsisf
                  0x002cca                  ___gedf2
                  0x001272                  ___gesf2
                  0x002cca                  ___gtdf2
                  0x001272                  ___gtsf2
                  0x002cc0                  ___ledf2
                  0x00126e                  ___lesf2
                  0x002cc0                  ___ltdf2
                  0x00126e                  ___ltsf2
                  0x0010e6                  ___moddi3
                  0x002eae                  ___muldf3
                  0x002fa2                  ___mulp32eds3
                  0x002fa2                  ___mulp32peds3
                  0x000cf0                  ___mulsf3
                  0x002fa2                  ___mulsi3
                  0x002f98                  ___subdf3
                  0x000a6a                  ___subsf3
                  0x001070                  ___udivdi3
                  0x000f8a                  ___udivmoddi3
                  0x000f1e                  ___udivsi3
                  0x00107e                  ___umoddi3
                  0x002f9c                  ___umodsi3
                  0x0030fa                  __dPropagateNaN
                  0x000252                  __data_init
                  0x000252                  __data_init_standard
                  0x0030a8                  __dcompare
                  0x002d88                  __dpack
                  0x002e02                  __dreturnNaN
                  0x003116                  __dtype
                  0x00313a                  __dunpack
                  0x002de0                  __dunpack2
                  0x002e08                  __dunpack2exit
                  0x000cd0                  __fPropagateNaN
                  0x000ce2                  __fbopExit
                  0x000cea                  __fbopReturnNaN
                  0x001220                  __fchop
                  0x0013e6                  __fcompare
                  0x000c4a                  __fpack
                  0x001142                  __frexpf
                  0x000c96                  __funpack
                  0x000cc0                  __funpack2
                  0x0019d8                  __printf_cdnopuxX
                  0x00023c                  __psv_init
                  0x000200                  __resetPRI
                  0x00a78e                  _altimeter_calibrate
                  0x005252                  _altitudeCntrl
                  0x0047b6                  _arcsine
                  0x00360c                  _bin_mode
                  0x00963c                  _bit_in
                  0x009612                  _bit_out
                  0x0095ea                  _bstart
                  0x0095fe                  _bstop
                  0x00969c                  _byte_in
                  0x009672                  _byte_out
                  0x00ac6e                  _calculate_analog_sensor_values
                  0x005af0                  _calculate_sonar_height_above_ground
                  0x00141c                  _calloc
                  0x00ac74                  _cam_pitchServoLimit
                  0x00ac9e                  _cam_yawServoLimit
                  0x00ad10                  _cameraCntrl
                  0x00acfe                  _cameraInit
                  0x008e78                  _cameraServoMix
                  0x00a11a                  _canStabilizeHover
                  0x00a112                  _canStabilizeInverted
                  0x009ee6                  _commit_gps_data
                  0x006d80                  _compute_bearing_to_goal
                  0x00ace0                  _compute_camera_view
                  0x00709a                  _compute_hovering_dir
                  0x004e5c                  _compute_pi_block
                  0x008cb0                  _compute_pot_order
                  0x005650                  _compute_vz_alt_sensor
                  0x00a886                  _configureDigitalIO
                  0x004858                  _cosine
                  0x00a4ce                  _dcm_absolute_to_relative
                  0x00a478                  _dcm_calibrate
                  0x006ce6                  _dcm_callback_gps_location_updated
                  0x00ad90                  _dcm_enable_yaw_drift_correction
                  0x00a3c6                  _dcm_init
                  0x0038ce                  _dcm_init_rmat
                  0x004738                  _dcm_run_imu_step
                  0x00a3d4                  _dcm_run_init_step
                  0x00a5b0                  _dcm_servo_callback_prepare_outputs
                  0x00a490                  _dcm_set_origin_location
                  0x007f18                  _dead_reckon
                  0x006f46                  _determine_navigation_deflection
                  0x002ca2                  _div
                  0x00a410                  _do_I2C_stuff
                  0x009744                  _eeprom_ByteRead
                  0x0096e0                  _eeprom_ByteWrite
                  0x009706                  _eeprom_PageWrite
                  0x009776                  _eeprom_SequentialRead
                  0x00a7f6                  _estBaroAltitude
                  0x00adae                  _estYawDrift
                  0x009178                  _estimateWind
                  0x00516c                  _excess_energy_height
                  0x00115c                  _expf
                  0x004f86                  _exponential_filter
                  0x004ffc                  _exponential_filter32
                  0x00274a                  _fclose
                  0x00ab26                  _flight_mode_switch_2pos_poll
                  0x00ab2c                  _flight_mode_switch_check_set
                  0x00aafc                  _flight_mode_switch_manual
                  0x00ab0a                  _flight_mode_switch_stabilize
                  0x00ab18                  _flight_mode_switch_waypoints
                  0x007ecc                  _flightplan_live_begin
                  0x007f04                  _flightplan_live_commit
                  0x007ed4                  _flightplan_live_received_byte
                  0x001d5c                  _free
                  0x001dc0                  _fwrite
                  0x00aea6                  _gentrap
                  0x00ae90                  _getErrLoc
                  0x00a784                  _get_barometer_agl_altitude
                  0x00a77a                  _get_barometer_altitude
                  0x00a770                  _get_barometer_pressure
                  0x00a768                  _get_barometer_temperature
                  0x007cbe                  _get_fixed_origin
                  0x00ae08                  _get_geo_heading_angle
                  0x00a870                  _get_reset_flags
                  0x009d60                  _gps_nav_valid
                  0x009d72                  _gps_startup_sequence
                  0x008f18                  _gpsoutbin
                  0x008f32                  _gpsoutline
                  0x006824                  _hex_char_val
                  0x0056c6                  _hoverAltitudeCntrl
                  0x0098d4                  _hoverPitchCntrl
                  0x009c74                  _hoverRollCntrl
                  0x00aadc                  _hoverYawCntrl
                  0x005330                  _hovering_failsafe
                  0x003882                  _hoverpitchToWPki
                  0x003880                  _hoverpitchToWPkp
                  0x0038a6                  _hoverrollToWPki
                  0x0038a4                  _hoverrollToWPkp
                  0x003822                  _hovertargetheightmax
                  0x003820                  _hovertargetheightmin
                  0x003826                  _hovertargetvzmax
                  0x003824                  _hovertargetvzmin
                  0x00383e                  _hoverthrottleacczki
                  0x00383c                  _hoverthrottleacczkp
                  0x00380a                  _hoverthrottlemax
                  0x00380c                  _hoverthrottlemin
                  0x00380e                  _hoverthrottleoffset
                  0x003836                  _hoverthrottlevzki
                  0x003834                  _hoverthrottlevzkp
                  0x00382e                  _hoverthrottlezki
                  0x00382c                  _hoverthrottlezkp
                  0x0084d8                  _initSPI1_master16
                  0x008632                  _initSPI2_master16
                  0x00a0de                  _init_behavior
                  0x009a64                  _init_events
                  0x007c5a                  _init_flightplan
                  0x00a91e                  _init_leds
                  0x00678a                  _init_serial
                  0x00a52a                  _init_servoPrepare
                  0x0081fc                  _init_states
                  0x00381c                  _invdeltafilteraccel
                  0x003818                  _invdeltafilterbaro
                  0x003888                  _invdeltafilterpitch
                  0x0038ac                  _invdeltafilterroll
                  0x003810                  _invdeltafiltersonar
                  0x003814                  _invdeltafiltertargetz
                  0x0012f4                  _ldexpf
                  0x00286e                  _ldiv
                  0x004e32                  _limit_value
                  0x003840                  _limitintegralaccz
                  0x003884                  _limitintegralpitchToWP
                  0x0038a8                  _limitintegralrollToWP
                  0x003838                  _limitintegralvz
                  0x003830                  _limitintegralz
                  0x00382a                  _limittargetaccz
                  0x003828                  _limittargetvz
                  0x001338                  _logf
                  0x004da4                  _long_scale
                  0x00ae4a                  _main
                  0x0014a8                  _malloc
                  0x00560e                  _manualHoverThrottle
                  0x00a62c                  _manualPassthrough
                  0x0055cc                  _manualThrottle
                  0x003e1c                  _matrix_normalize
                  0x0038ca                  _max_tilt
                  0x00a934                  _mcu_init
                  0x001e68                  _memchr
                  0x001e7c                  _memcpy
                  0x0014fc                  _memset
                  0x003628                  _mode
                  0x003632                  _mode_length
                  0x005b62                  _motorCntrl
                  0x005072                  _ms_init
                  0x003634                  _msg41parse
                  0x009dcc                  _msg_A0
                  0x009de8                  _msg_A2
                  0x009eb6                  _msg_B0
                  0x009db8                  _msg_B3
                  0x009e48                  _msg_MSG41
                  0x009e8e                  _msg_MSGU
                  0x009dfa                  _msg_PL1
                  0x009e12                  _msg_PL2
                  0x007d20                  _next_waypoint
                  0x00854a                  _no_call_back
                  0x005358                  _normalAltitudeCntrl
                  0x0097f0                  _normalPitchCntrl
                  0x009bb0                  _normalRollCntrl
                  0x00aa56                  _normalYawCntrl
                  0x0097d4                  _pitchCntrl
                  0x003892                  _pitch_offset_centred_pwm
                  0x00388c                  _pitch_servo_high_ratio
                  0x003896                  _pitch_servo_pwm_max
                  0x003898                  _pitch_servo_pwm_min
                  0x003878                  _pitchgain
                  0x00387a                  _pitchkd
                  0x000d58                  _powf
                  0x00a6d2                  _process_MPU_data
                  0x006d5e                  _process_flightplan
                  0x008550                  _readSPI1_burst16n
                  0x0086b8                  _readSPI2_burst16n
                  0x003a36                  _read_accel
                  0x003994                  _read_gyros
                  0x0049b8                  _rect_to_polar
                  0x004a6c                  _rect_to_polar16
                  0x0099bc                  _register_event
                  0x0099ca                  _register_event_p
                  0x00a95e                  _reset
                  0x009b96                  _rollCntrl
                  0x00387e                  _rollElevMixGain
                  0x0038a2                  _rollkd
                  0x0038c0                  _rollkdrud
                  0x0038a0                  _rollkp
                  0x0038be                  _rollkprud
                  0x00494e                  _rotate
                  0x0048d4                  _rotate_2D_long_vector_by_vector
                  0x004932                  _rotate_2D_vector_by_angle
                  0x004866                  _rotate_2D_vector_by_vector
                  0x0037de                  _rtlWaypoints
                  0x00387c                  _rudderElevMixGain
                  0x007e26                  _run_flightplan
                  0x0061b0                  _rxBarometer
                  0x008796                  _rxMagnetometer
                  0x0068f4                  _serial_output
                  0x006956                  _serial_output_8hz
                  0x008cec                  _servoMix
                  0x00a0ee                  _setBehavior
                  0x00534c                  _setTargetAltitude
                  0x00acc8                  _set_camera_view
                  0x006cfa                  _set_goal
                  0x005270                  _set_throttle_control
                  0x0052d0                  _set_throttle_hover_control
                  0x007210                  _set_udb_pwIn
                  0x00376e                  _sga_coefficients
                  0x0050a2                  _sga_filter
                  0x00475a                  _sine
                  0x0036ec                  _sintab
                  0x0068b0                  _sio_fp_checksum
                  0x00685a                  _sio_fp_data
                  0x0067c6                  _sio_newMsg
                  0x0067f4                  _sio_voltage_high
                  0x006808                  _sio_voltage_low
                  0x00ad4a                  _sonarCntrl
                  0x00ad40                  _sonarInit
                  0x008e54                  _sonarServoMix
                  0x00ad16                  _sonar_pitchServoLimit
                  0x0038b4                  _sonar_pitch_offset_centred_pwm
                  0x0038b6                  _sonar_pitch_offset_pwm
                  0x0038b0                  _sonar_pitch_servo_high_ratio
                  0x0038b8                  _sonar_pitch_servo_pwm_max
                  0x0038ba                  _sonar_pitch_servo_pwm_min
                  0x0038b2                  _sonar_tan_pitch_in_stabilized_mode
                  0x004b4a                  _sqrt_int
                  0x004bb2                  _sqrt_long
                  0x009446                  _start_pwm_outputs
                  0x009458                  _start_pwm_outputs_2
                  0x00946a                  _start_pwm_outputs_3
                  0x00199a                  _strchr
                  0x00150a                  _strlen
                  0x003890                  _tan_pitch_in_stabilized_mode
                  0x00a246                  _triggerActionSetValue
                  0x009a16                  _trigger_event
                  0x00abf6                  _udb_a2d_record_offsets
                  0x00821a                  _udb_background_callback_periodic
                  0x008f82                  _udb_background_callback_triggered
                  0x00a008                  _udb_background_trigger
                  0x00a7e0                  _udb_barometer_callback
                  0x008212                  _udb_callback_radio_did_turn_off
                  0x00a402                  _udb_callback_read_sensors
                  0x00a03a                  _udb_cpu_load
                  0x0095e0                  _udb_eeprom_init
                  0x008f4a                  _udb_gps_callback_get_byte_to_send
                  0x008f74                  _udb_gps_callback_received_byte
                  0x008ac0                  _udb_gps_check_rate
                  0x008a96                  _udb_gps_set_rate
                  0x008af6                  _udb_gps_start_sending_data
                  0x00abbc                  _udb_init
                  0x00a254                  _udb_init_ADC
                  0x008a38                  _udb_init_GPS
                  0x008b74                  _udb_init_USART
                  0x00711e                  _udb_init_capture
                  0x009f24                  _udb_init_clock
                  0x0093b6                  _udb_init_pwm
                  0x004532                  _udb_magnetometer_callback
                  0x00abf0                  _udb_run
                  0x006934                  _udb_serial_callback_get_byte_to_send
                  0x0067b8                  _udb_serial_callback_received_byte
                  0x008bfc                  _udb_serial_check_rate
                  0x008bd2                  _udb_serial_set_rate
                  0x008c32                  _udb_serial_start_sending_data
                  0x00a444                  _udb_servo_callback_prepare_outputs
                  0x00ac40                  _udb_servo_pulsesat
                  0x00ac18                  _udb_servo_record_trims
                  0x00942c                  _udb_set_action_state
                  0x00a130                  _updateBehavior
                  0x00a1fe                  _updateTriggerAction
                  0x006d52                  _update_goal_alt
                  0x007cb6                  _use_fixed_origin
                  0x004c58                  _vector2_mag
                  0x004ca4                  _vector2_normalize
                  0x004c78                  _vector3_mag
                  0x004d0e                  _vector3_normalize
                  0x00154c                  _vsnprintf
                  0x0037c8                  _waypoints
                  0x006f3e                  _wind_gain_adjustment
                  0x0037f4                  _wp_inject_byte_order
                  0x007bd0                  _wp_to_relative
                  0x00851a                  _writeSPI1reg16
                  0x008674                  _writeSPI2reg16
                  0x00aa3c                  _yawCntrl
                  0x0038cc                  _yaw_command_gain
                  0x003894                  _yaw_offset_centred_pwm
                  0x00388e                  _yaw_servo_high_ratio
                  0x00389a                  _yaw_servo_pwm_max
                  0x00389c                  _yaw_servo_pwm_min
                  0x00389e                  _yawkdail
                  0x0038bc                  _yawkdrud
                  0x0038c6                  _yawkpail
                  0x0038c8                  _yawkprud
                  0x007832                  build/default/production/_ext/1077454706/I2C2.o:_isr_doneRead
                  0x007778                  build/default/production/_ext/1077454706/I2C2.o:_isr_doneWrite
                  0x00782c                  build/default/production/_ext/1077454706/I2C2.o:_isr_idle
                  0x00779c                  build/default/production/_ext/1077454706/I2C2.o:_isr_readAddress
                  0x00778c                  build/default/production/_ext/1077454706/I2C2.o:_isr_readStart
                  0x0077cc                  build/default/production/_ext/1077454706/I2C2.o:_isr_recen
                  0x0077f2                  build/default/production/_ext/1077454706/I2C2.o:_isr_recstore
                  0x0077e6                  build/default/production/_ext/1077454706/I2C2.o:_isr_rerecen
                  0x0076b4                  build/default/production/_ext/1077454706/I2C2.o:_isr_startWrite
                  0x007820                  build/default/production/_ext/1077454706/I2C2.o:_isr_stopRead
                  0x0076d0                  build/default/production/_ext/1077454706/I2C2.o:_isr_writeAddress
                  0x0076e6                  build/default/production/_ext/1077454706/I2C2.o:_isr_writeCommandData
                  0x007730                  build/default/production/_ext/1077454706/I2C2.o:_isr_writeData
                  0x00776c                  build/default/production/_ext/1077454706/I2C2.o:_isr_writeStop
                  0x007570                  build/default/production/_ext/1077454706/I2C2.o:_serviceI2C2
                  0x008898                  build/default/production/_ext/1077454706/magnetometer.o:_I2C_callback
                  0x00836c                  build/default/production/_ext/1472/states.o:_acquiringS
                  0x00832e                  build/default/production/_ext/1472/states.o:_calibrateS
                  0x0083d6                  build/default/production/_ext/1472/states.o:_manualS
                  0x00849c                  build/default/production/_ext/1472/states.o:_returnS
                  0x008418                  build/default/production/_ext/1472/states.o:_stabilizedS
                  0x008326                  build/default/production/_ext/1472/states.o:_startS
                  0x008456                  build/default/production/_ext/1472/states.o:_waypointS
                  0x0027da                  fclose.XX_elo:_closeall
                  0x0019bc                  printf_cdnopuxX.XXeo:_prout
                  0x00152a                  vsnprint.XX_eo:_prout

Memory Configuration

Name             Origin             Length             Attributes
data             0x000800           0x007800           a !xr
reset            0x000000           0x000004  
ivt              0x000004           0x0000fc  
_reserved        0x000100           0x000004  
aivt             0x000104           0x0000fc  
program          0x000200           0x02aa00           xr
FBS              0xf80000           0x000002  
FSS              0xf80002           0x000002  
FGS              0xf80004           0x000002  
FOSCSEL          0xf80006           0x000002  
FOSC             0xf80008           0x000002  
FWDT             0xf8000a           0x000002  
FPOR             0xf8000c           0x000002  
FICD             0xf8000e           0x000002  
FUID0            0xf80010           0x000002  
FUID1            0xf80012           0x000002  
FUID2            0xf80014           0x000002  
FUID3            0xf80016           0x000002  
*default*        0x000000           0xffffffff  

Linker script and memory map

LOAD build/default/production/_ext/1077471063/estWind.o
LOAD build/default/production/_ext/1077471063/estYawDrift.o
LOAD build/default/production/_ext/1077471063/gpsParseCommon.o
LOAD build/default/production/_ext/1077471063/gpsParseSTD.o
LOAD build/default/production/_ext/1077471063/gpsParseUBX.o
LOAD build/default/production/_ext/1077471063/mathlibNAV.o
LOAD build/default/production/_ext/1077471063/rmat.o
LOAD build/default/production/_ext/1077471063/libDCM.o
LOAD build/default/production/_ext/1077471063/deadReckoning.o
LOAD build/default/production/_ext/1077471063/gpsParseMTEK.o
LOAD build/default/production/_ext/1077471063/estAltitude.o
LOAD build/default/production/_ext/1077454706/background.o
LOAD build/default/production/_ext/1077454706/libUDB.o
LOAD build/default/production/_ext/1077454706/servoOut.o
LOAD build/default/production/_ext/1077454706/osd.o
LOAD build/default/production/_ext/1077454706/24LC256.o
LOAD build/default/production/_ext/1077454706/events.o
LOAD build/default/production/_ext/1077454706/mpu6000.o
LOAD build/default/production/_ext/1077454706/spiUtils.o
LOAD build/default/production/_ext/1077454706/analog2digital_udb5.o
LOAD build/default/production/_ext/1077454706/traps_asm.o
LOAD build/default/production/_ext/1077454706/analog2digital_udb4.o
LOAD build/default/production/_ext/1077454706/mcu.o
LOAD build/default/production/_ext/1077454706/eeprom_udb4.o
LOAD build/default/production/_ext/1077454706/traps.o
LOAD build/default/production/_ext/1077454706/barometer.o
LOAD build/default/production/_ext/1077454706/I2C1.o
LOAD build/default/production/_ext/1077454706/I2C2.o
LOAD build/default/production/_ext/1077454706/magnetometer.o
LOAD build/default/production/_ext/1077454706/radioIn.o
LOAD build/default/production/_ext/1077454706/serialIO.o
LOAD build/default/production/_ext/1077454706/read.o
LOAD build/default/production/_ext/1077454706/uart.o
LOAD build/default/production/_ext/1077454706/write.o
LOAD build/default/production/_ext/679848855/madd.o
LOAD build/default/production/_ext/679848855/mmul.o
LOAD build/default/production/_ext/679848855/mscl.o
LOAD build/default/production/_ext/679848855/msub.o
LOAD build/default/production/_ext/679848855/mtrp.o
LOAD build/default/production/_ext/679848855/vadd.o
LOAD build/default/production/_ext/679848855/vcon.o
LOAD build/default/production/_ext/679848855/vcopy.o
LOAD build/default/production/_ext/679848855/vcor.o
LOAD build/default/production/_ext/679848855/vdot.o
LOAD build/default/production/_ext/679848855/vmax.o
LOAD build/default/production/_ext/679848855/vmin.o
LOAD build/default/production/_ext/679848855/vmul.o
LOAD build/default/production/_ext/679848855/vneg.o
LOAD build/default/production/_ext/679848855/vpow.o
LOAD build/default/production/_ext/679848855/vscl.o
LOAD build/default/production/_ext/679848855/vsub.o
LOAD build/default/production/_ext/679848855/vzpad.o
LOAD build/default/production/_ext/1472/config_tests.o
LOAD build/default/production/_ext/1472/behavior.o
LOAD build/default/production/_ext/1472/cameraCntrl.o
LOAD build/default/production/_ext/1472/main.o
LOAD build/default/production/_ext/1472/navigate.o
LOAD build/default/production/_ext/1472/pitchCntrl.o
LOAD build/default/production/_ext/1472/rollCntrl.o
LOAD build/default/production/_ext/1472/servoMix.o
LOAD build/default/production/_ext/1472/states.o
LOAD build/default/production/_ext/1472/yawCntrl.o
LOAD build/default/production/_ext/1472/telemetry.o
LOAD build/default/production/_ext/1472/servoPrepare.o
LOAD build/default/production/_ext/1472/flightplan-waypoints.o
LOAD build/default/production/_ext/1472/flightplan-logo.o
LOAD build/default/production/_ext/1472/mp_osd.o
LOAD build/default/production/_ext/1472/altitudeCntrl.o
LOAD build/default/production/_ext/1472/MAVLink.o
LOAD build/default/production/_ext/1472/mode_switch.o
LOAD build/default/production/_ext/1472/data_services.o
LOAD build/default/production/_ext/1472/data_storage.o
LOAD build/default/production/_ext/1472/nv_memory_table.o
LOAD build/default/production/_ext/1472/parameter_table.o
LOAD build/default/production/_ext/1472/airspeedCntrl.o
LOAD build/default/production/_ext/1472/altitudeCntrlVariable.o
LOAD build/default/production/_ext/1472/euler_angles.o
LOAD build/default/production/_ext/1472/console.o
LOAD build/default/production/_ext/1472/sonarCntrl.o
LOAD build/default/production/_ext/1472/motorCntrl.o
                    0x0001                  __MPLAB_BUILD = 0x1
LOAD c:/program files (x86)/microchip/xc16/v1.31/bin/bin/../../lib/dsPIC33F\libp33FJ256GP710A-elf.a
LOAD c:/program files (x86)/microchip/xc16/v1.31/bin/bin/../../lib\libfx-elf.a
                    0xf80000                  __FBS = 0xf80000
                    0xf80002                  __FSS = 0xf80002
                    0xf80004                  __FGS = 0xf80004
                    0xf80006                  __FOSCSEL = 0xf80006
                    0xf80008                  __FOSC = 0xf80008
                    0xf8000a                  __FWDT = 0xf8000a
                    0xf8000c                  __FPOR = 0xf8000c
                    0xf8000e                  __FICD = 0xf8000e
                    0xf80010                  __FUID0 = 0xf80010
                    0xf80012                  __FUID1 = 0xf80012
                    0xf80014                  __FUID2 = 0xf80014
                    0xf80016                  __FUID3 = 0xf80016
                    0x0200                  __CODE_BASE = 0x200
                    0x2aa00                  __CODE_LENGTH = 0x2aa00
                    0x0004                  __IVT_BASE = 0x4
                    0x0104                  __AIVT_BASE = 0x104
                    0x0800                  __DATA_BASE = 0x800
                    0x7800                  __DATA_LENGTH = 0x7800
                    0x4800                  __YDATA_BASE = 0x4800
                    0x7800                  __DMA_BASE = 0x7800
                    0x7fff                  __DMA_END = 0x7fff

.reset            0x000000          0x4
                  0x000000          0x2 SHORT 0x200 ABSOLUTE (__reset)
                  0x000001          0x2 SHORT 0x4
                  0x000002          0x2 SHORT 0x0 ((ABSOLUTE (__reset) >> 0x10) & 0x7f)
                  0x000003          0x2 SHORT 0x0

.text             0x000200       0x2ffe
 *(.init)
 .init            0x000200         0x4c c:/program files (x86)/microchip/xc16/v1.31/bin/bin/../../lib\liblega-pic30-elf.a(crt0_standard.o)
                  0x000200                  __resetPRI
                  0x000200                  __reset
                  0x00023c                  __psv_init
 .init            0x00024c         0x7c c:/program files (x86)/microchip/xc16/v1.31/bin/bin/../../lib\liblega-pic30-elf.a(data_init_standard.o)
                  0x000252                  __data_init_standard
                  0x000252                  __data_init
 *(.user_init)
 *(.handle)
 .handle          0x0002c8         0xbc jump_table
 *(.isr*)
 .isr             0x000384          0x4 default_isr
                  0x000384                  __DefaultInterrupt
 *(.libc)
 .libc            0x000388         0xac build/default/production/_ext/1077454706/read.o
                  0x000388                  _read
 .libc            0x000434         0x9c build/default/production/_ext/1077454706/write.o
                  0x000434                  _write
 .libc            0x0004d0         0x12 c:/program files (x86)/microchip/xc16/v1.31/bin/bin/../../lib\liblega-pic30-elf.a(close.Leo)
                  0x0004d0                  _close
 .libc            0x0004e2         0x12 c:/program files (x86)/microchip/xc16/v1.31/bin/bin/../../lib\liblega-pic30-elf.a(remove.Leo)
                  0x0004e2                  _remove
 .libc            0x0004f4         0x28 c:/program files (x86)/microchip/xc16/v1.31/bin/bin/../../lib\liblega-pic30-elf.a(sbrk.Leo)
                  0x0004f4                  _sbrk
 .libc            0x00051c         0x1a c:/program files (x86)/microchip/xc16/v1.31/bin/bin/../../lib\liblega-pic30-elf.a(brk.Lelo)
                  0x00051c                  _brk
 *(.libm)
 *(.libdsp)
 .libdsp          0x000536         0x40 build/default/production/_ext/679848855/madd.o
                  0x000536                  _MatrixAdd
 .libdsp          0x000576         0x7a build/default/production/_ext/679848855/mmul.o
                  0x000576                  _MatrixMultiply
 .libdsp          0x0005f0         0x3c build/default/production/_ext/679848855/mscl.o
                  0x0005f0                  _MatrixScale
 .libdsp          0x00062c         0x4e build/default/production/_ext/679848855/msub.o
                  0x00062c                  _MatrixSubtract
 .libdsp          0x00067a         0x48 build/default/production/_ext/679848855/mtrp.o
                  0x00067a                  _MatrixTranspose
 .libdsp          0x0006c2         0x3e build/default/production/_ext/679848855/vadd.o
                  0x0006c2                  _VectorAdd
 .libdsp          0x000700         0xf8 build/default/production/_ext/679848855/vcon.o
                  0x000700                  _VectorConvolve
 .libdsp          0x0007f8         0x10 build/default/production/_ext/679848855/vcopy.o
                  0x0007f8                  _VectorCopy
 .libdsp          0x000808         0x30 build/default/production/_ext/679848855/vcor.o
                  0x000808                  _VectorCorrelate
 .libdsp          0x000838         0x3a build/default/production/_ext/679848855/vdot.o
                  0x000838                  _VectorDotProduct
 .libdsp          0x000872         0x1a build/default/production/_ext/679848855/vmax.o
                  0x000872                  _VectorMax
 .libdsp          0x00088c         0x1a build/default/production/_ext/679848855/vmin.o
                  0x00088c                  _VectorMin
 .libdsp          0x0008a6         0x3c build/default/production/_ext/679848855/vmul.o
                  0x0008a6                  _VectorMultiply
 .libdsp          0x0008e2         0x40 build/default/production/_ext/679848855/vneg.o
                  0x0008e2                  _VectorNegate
 .libdsp          0x000922         0x38 build/default/production/_ext/679848855/vpow.o
                  0x000922                  _VectorPower
 .libdsp          0x00095a         0x3c build/default/production/_ext/679848855/vscl.o
                  0x00095a                  _VectorScale
 .libdsp          0x000996         0x4c build/default/production/_ext/679848855/vsub.o
                  0x000996                  _VectorSubtract
 .libdsp          0x0009e2         0x1e build/default/production/_ext/679848855/vzpad.o
                  0x0009e2                  _VectorZeroPad
 *(.lib*)
 .libperi         0x000a00          0x8 c:/program files (x86)/microchip/xc16/v1.31/bin/bin/../../lib/dsPIC33F\libp33FJ256GP710A-elf.a(CloseSPI1.o)
                  0x000a00                  _CloseSPI1
 .libperi         0x000a08          0x8 c:/program files (x86)/microchip/xc16/v1.31/bin/bin/../../lib/dsPIC33F\libp33FJ256GP710A-elf.a(CloseSPI2.o)
                  0x000a08                  _CloseSPI2
 .libperi         0x000a10         0x24 c:/program files (x86)/microchip/xc16/v1.31/bin/bin/../../lib/dsPIC33F\libp33FJ256GP710A-elf.a(ConfigIntSPI1.o)
                  0x000a10                  _ConfigIntSPI1
 .libperi         0x000a34         0x24 c:/program files (x86)/microchip/xc16/v1.31/bin/bin/../../lib/dsPIC33F\libp33FJ256GP710A-elf.a(ConfigIntSPI2.o)
                  0x000a34                  _ConfigIntSPI2
 .libperi         0x000a58          0x8 c:/program files (x86)/microchip/xc16/v1.31/bin/bin/../../lib/dsPIC33F\libp33FJ256GP710A-elf.a(OpenSPI1.o)
                  0x000a58                  _OpenSPI1
 .libperi         0x000a60          0x8 c:/program files (x86)/microchip/xc16/v1.31/bin/bin/../../lib/dsPIC33F\libp33FJ256GP710A-elf.a(OpenSPI2.o)
                  0x000a60                  _OpenSPI2
 .libpic30_crt_start_mode
                  0x000a68          0x2 c:/program files (x86)/microchip/xc16/v1.31/bin/bin/../../lib\liblega-pic30-elf.a(crt_start_mode_normal.Leo)
                  0x000a68                  __crt_start_mode
                  0x000a68                  __crt_start_mode_normal
 .libm.subsf3     0x000a6a         0xbc c:/program files (x86)/microchip/xc16/v1.31/bin/bin/../../lib\libm-elf.a(addsf3.eo)
                  0x000a6a                  ___subsf3
                  0x000a6c                  ___addsf3
 .libm.divfs3     0x000b26         0x84 c:/program files (x86)/microchip/xc16/v1.31/bin/bin/../../lib\libm-elf.a(divsf3.eo)
                  0x000b26                  ___divsf3
 .libm.divsi3     0x000baa         0x1e c:/program files (x86)/microchip/xc16/v1.31/bin/bin/../../lib\libm-elf.a(divsi3.eo)
                  0x000baa                  ___divsi3
 .libm.fixsfsi    0x000bc8         0x42 c:/program files (x86)/microchip/xc16/v1.31/bin/bin/../../lib\libm-elf.a(fixsfsi.eo)
                  0x000bc8                  _(float, int, long long, short, float, short, int)
 .libm.fixunssfsi
                  0x000c0a         0x36 c:/program files (x86)/microchip/xc16/v1.31/bin/bin/../../lib\libm-elf.a(fixunssfsi.eo)
                  0x000c0a                  ___fixunssfsi
 .libm.floatsisf
                  0x000c40          0x6 c:/program files (x86)/microchip/xc16/v1.31/bin/bin/../../lib\libm-elf.a(floatsisf.eo)
                  0x000c40                  ___floatsisf
 .libm.floatunsisf
                  0x000c46          0x4 c:/program files (x86)/microchip/xc16/v1.31/bin/bin/../../lib\libm-elf.a(floatunsisf.eo)
                  0x000c46                  ___floatunsisf
 .libm.fpack      0x000c4a         0x4c c:/program files (x86)/microchip/xc16/v1.31/bin/bin/../../lib\libm-elf.a(fpack.eo)
                  0x000c4a                  __fpack
 .libm.funpack    0x000c96         0x2a c:/program files (x86)/microchip/xc16/v1.31/bin/bin/../../lib\libm-elf.a(funpack.eo)
                  0x000c96                  __funpack
 .libm.funpack2
                  0x000cc0         0x10 c:/program files (x86)/microchip/xc16/v1.31/bin/bin/../../lib\libm-elf.a(funpack2.eo)
                  0x000cc0                  __funpack2
 .libm.fPropagateNaN
                  0x000cd0         0x12 c:/program files (x86)/microchip/xc16/v1.31/bin/bin/../../lib\libm-elf.a(futil.eo)
                  0x000cd0                  __fPropagateNaN
 .libm.fbobExit
                  0x000ce2          0x8 c:/program files (x86)/microchip/xc16/v1.31/bin/bin/../../lib\libm-elf.a(futil.eo)
                  0x000ce2                  __fbopExit
 .libm.fbopReturnNaN
                  0x000cea          0x6 c:/program files (x86)/microchip/xc16/v1.31/bin/bin/../../lib\libm-elf.a(futil.eo)
                  0x000cea                  __fbopReturnNaN
 .libm.mulsf3     0x000cf0         0x68 c:/program files (x86)/microchip/xc16/v1.31/bin/bin/../../lib\libm-elf.a(mulsf3.eo)
                  0x000cf0                  ___mulsf3
 .libm.powf       0x000d58        0x1c6 c:/program files (x86)/microchip/xc16/v1.31/bin/bin/../../lib\libm-elf.a(powf.eo)
                  0x000d58                  _powf
 .libm.udivsi3    0x000f1e         0x20 c:/program files (x86)/microchip/xc16/v1.31/bin/bin/../../lib\libm-elf.a(udivsi3.eo)
                  0x000f1e                  ___udivsi3
 .libm.__PplusBdi
                  0x000f3e         0x26 c:/program files (x86)/microchip/xc16/v1.31/bin/bin/../../lib\libm-elf.a(divmoddi3.eo)
 .libm.__PminusBdi
                  0x000f64         0x26 c:/program files (x86)/microchip/xc16/v1.31/bin/bin/../../lib\libm-elf.a(divmoddi3.eo)
 .libm.__udivmoddi3
                  0x000f8a         0xe6 c:/program files (x86)/microchip/xc16/v1.31/bin/bin/../../lib\libm-elf.a(divmoddi3.eo)
                  0x000f8a                  ___udivmoddi3
 .libm.__udivdi3
                  0x001070          0xe c:/program files (x86)/microchip/xc16/v1.31/bin/bin/../../lib\libm-elf.a(divmoddi3.eo)
                  0x001070                  ___udivdi3
 .libm.__umoddi3
                  0x00107e          0x8 c:/program files (x86)/microchip/xc16/v1.31/bin/bin/../../lib\libm-elf.a(divmoddi3.eo)
                  0x00107e                  ___umoddi3
 .libm.__divdi3
                  0x001086         0x60 c:/program files (x86)/microchip/xc16/v1.31/bin/bin/../../lib\libm-elf.a(divmoddi3.eo)
                  0x001086                  ___divdi3
 .libm.__moddi3
                  0x0010e6         0x5c c:/program files (x86)/microchip/xc16/v1.31/bin/bin/../../lib\libm-elf.a(divmoddi3.eo)
                  0x0010e6                  ___moddi3
 .libm.frexpf     0x001142         0x1a c:/program files (x86)/microchip/xc16/v1.31/bin/bin/../../lib\libm-elf.a(_frexpf.eo)
                  0x001142                  __frexpf
 .libm.expf       0x00115c         0xc4 c:/program files (x86)/microchip/xc16/v1.31/bin/bin/../../lib\libm-elf.a(expf.eo)
                  0x00115c                  _expf
 .libm.fchop      0x001220         0x4e c:/program files (x86)/microchip/xc16/v1.31/bin/bin/../../lib\libm-elf.a(fchop.eo)
                  0x001220                  __fchop
 .libm.eqsf2      0x00126e          0x4 c:/program files (x86)/microchip/xc16/v1.31/bin/bin/../../lib\libm-elf.a(feqltle.eo)
                  0x00126e                  ___eqsf2
                  0x00126e                  ___ltsf2
                  0x00126e                  ___lesf2
 .libm.gtsf2      0x001272          0x4 c:/program files (x86)/microchip/xc16/v1.31/bin/bin/../../lib\libm-elf.a(fgtge.eo)
                  0x001272                  ___gesf2
                  0x001272                  ___gtsf2
 .libm.floatdisf
                  0x001276         0x20 c:/program files (x86)/microchip/xc16/v1.31/bin/bin/../../lib\libm-elf.a(floatdisf.eo)
                  0x001276                  ___floatdisf
 .libm.floatundisf
                  0x001296         0x5e c:/program files (x86)/microchip/xc16/v1.31/bin/bin/../../lib\libm-elf.a(floatundisf.eo)
                  0x001296                  ___floatundisf
 .libm.ldexpf     0x0012f4         0x44 c:/program files (x86)/microchip/xc16/v1.31/bin/bin/../../lib\libm-elf.a(ldexpf.eo)
                  0x0012f4                  _ldexpf
 .libm.logf       0x001338         0xae c:/program files (x86)/microchip/xc16/v1.31/bin/bin/../../lib\libm-elf.a(logf.eo)
                  0x001338                  _logf
 .libm.fcompare
                  0x0013e6         0x36 c:/program files (x86)/microchip/xc16/v1.31/bin/bin/../../lib\libm-elf.a(fcompare.eo)
                  0x0013e6                  __fcompare
 .libc.calloc     0x00141c         0x26 c:/program files (x86)/microchip/xc16/v1.31/bin/bin/../../lib\liblega-c-elf.a(calloc.XX_eo)
                  0x00141c                  _calloc
 .libc.findmem    0x001442         0x66 c:/program files (x86)/microchip/xc16/v1.31/bin/bin/../../lib\liblega-c-elf.a(malloc.XX_eo)
 .libc.malloc     0x0014a8         0x54 c:/program files (x86)/microchip/xc16/v1.31/bin/bin/../../lib\liblega-c-elf.a(malloc.XX_eo)
                  0x0014a8                  _malloc
 .libc.memset     0x0014fc          0xe c:/program files (x86)/microchip/xc16/v1.31/bin/bin/../../lib\liblega-c-elf.a(memset.XX_eo)
                  0x0014fc                  _memset
 .libc.strlen     0x00150a          0xc c:/program files (x86)/microchip/xc16/v1.31/bin/bin/../../lib\liblega-c-elf.a(strlen.XX_eo)
                  0x00150a                  _strlen
 .libc._Getmem    0x001516         0x14 c:/program files (x86)/microchip/xc16/v1.31/bin/bin/../../lib\liblega-c-elf.a(xgetmem.XX_eo)
                  0x001516                  __Getmem
 .libc.prout      0x00152a         0x22 c:/program files (x86)/microchip/xc16/v1.31/bin/bin/../../lib\liblega-c-elf.a(vsnprint.XX_eo)
                  0x00152a                  vsnprint.XX_eo:_prout
 .libc.vsnprintf
                  0x00154c         0x20 c:/program files (x86)/microchip/xc16/v1.31/bin/bin/../../lib\liblega-c-elf.a(vsnprint.XX_eo)
                  0x00154c                  _vsnprintf
 .libc._Printf    0x00156c        0x164 c:/program files (x86)/microchip/xc16/v1.31/bin/bin/../../lib\liblega-c-elf.a(xprintf.XX_eo)
                  0x00156c                  __Printf
 .libc._Putfld    0x0016d0        0x2ca c:/program files (x86)/microchip/xc16/v1.31/bin/bin/../../lib\liblega-c-elf.a(xputfld.XX_eo)
                  0x0016d0                  __Putfld
 .libc.strchr     0x00199a         0x1e c:/program files (x86)/microchip/xc16/v1.31/bin/bin/../../lib\liblega-c-elf.a(strchr.XX_elo)
                  0x00199a                  _strchr
 .libc._Vacopy    0x0019b8          0x4 c:/program files (x86)/microchip/xc16/v1.31/bin/bin/../../lib\liblega-c-elf.a(xvacopy.XX_elo)
                  0x0019b8                  __Vacopy
 .libc.prout      0x0019bc         0x1c c:/program files (x86)/microchip/xc16/v1.31/bin/bin/../../lib\liblega-c-elf.a(printf_cdnopuxX.XXeo)
                  0x0019bc                  printf_cdnopuxX.XXeo:_prout
 .libc._printf_cdnopuxX
                  0x0019d8         0x10 c:/program files (x86)/microchip/xc16/v1.31/bin/bin/../../lib\liblega-c-elf.a(printf_cdnopuxX.XXeo)
                  0x0019d8                  __printf_cdnopuxX
 .libc.__Printf_cdnopuxX
                  0x0019e8        0x164 c:/program files (x86)/microchip/xc16/v1.31/bin/bin/../../lib\liblega-c-elf.a(xprintf_cdnopuxX.XXeo)
                  0x0019e8                  ___Printf_cdnopuxX
 .libc.__Putfld_cdnopuxX
                  0x001b4c        0x210 c:/program files (x86)/microchip/xc16/v1.31/bin/bin/../../lib\liblega-c-elf.a(xputfld_cdnopuxX.XXeo)
                  0x001b4c                  ___Putfld_cdnopuxX
 .libc.free       0x001d5c         0x64 c:/program files (x86)/microchip/xc16/v1.31/bin/bin/../../lib\liblega-c-elf.a(free.XX_eo)
                  0x001d5c                  _free
 .libc.fwrite     0x001dc0         0xa8 c:/program files (x86)/microchip/xc16/v1.31/bin/bin/../../lib\liblega-c-elf.a(fwrite.XX_eo)
                  0x001dc0                  _fwrite
 .libc.memchr     0x001e68         0x14 c:/program files (x86)/microchip/xc16/v1.31/bin/bin/../../lib\liblega-c-elf.a(memchr.XX_eo)
                  0x001e68                  _memchr
 .libc.memcpy     0x001e7c          0xe c:/program files (x86)/microchip/xc16/v1.31/bin/bin/../../lib\liblega-c-elf.a(memcpy.XX_eo)
                  0x001e7c                  _memcpy
 .libc._Fwprep    0x001e8a         0x8e c:/program files (x86)/microchip/xc16/v1.31/bin/bin/../../lib\liblega-c-elf.a(xfwprep.XX_eo)
                  0x001e8a                  __Fwprep
 .libc._Ldtob     0x001f18        0x3f2 c:/program files (x86)/microchip/xc16/v1.31/bin/bin/../../lib\liblega-c-elf.a(xldtob.XX_eo)
                  0x001f18                  __Ldtob
 .libc._LDunscale
                  0x00230a         0x54 c:/program files (x86)/microchip/xc16/v1.31/bin/bin/../../lib\liblega-c-elf.a(xldunsca.XX_eo)
                  0x00230a                  __LDunscale
 .libc._Litob     0x00235e        0x25e c:/program files (x86)/microchip/xc16/v1.31/bin/bin/../../lib\liblega-c-elf.a(xlitob.XX_eo)
                  0x00235e                  __Litob
 .libc._Puttxt    0x0025bc        0x178 c:/program files (x86)/microchip/xc16/v1.31/bin/bin/../../lib\liblega-c-elf.a(xputtxt.XX_eo)
                  0x0025bc                  __Puttxt
 .libc.closeallreg
                  0x002734          0x4 c:/program files (x86)/microchip/xc16/v1.31/bin/bin/../../lib\liblega-c-elf.a(fclose.XX_elo)
 .libc._Closreg
                  0x002738         0x12 c:/program files (x86)/microchip/xc16/v1.31/bin/bin/../../lib\liblega-c-elf.a(fclose.XX_elo)
                  0x002738                  __Closreg
 .libc.fclose     0x00274a         0x90 c:/program files (x86)/microchip/xc16/v1.31/bin/bin/../../lib\liblega-c-elf.a(fclose.XX_elo)
                  0x00274a                  _fclose
 .libc.closeall
                  0x0027da         0x20 c:/program files (x86)/microchip/xc16/v1.31/bin/bin/../../lib\liblega-c-elf.a(fclose.XX_elo)
                  0x0027da                  fclose.XX_elo:_closeall
 .libc._DNKfflush
                  0x0027fa         0x74 c:/program files (x86)/microchip/xc16/v1.31/bin/bin/../../lib\liblega-c-elf.a(fflush.XX_elo)
                  0x0027fa                  __DNKfflush
 .libc.ldiv       0x00286e         0x2a c:/program files (x86)/microchip/xc16/v1.31/bin/bin/../../lib\liblega-c-elf.a(ldiv.XX_elo)
                  0x00286e                  _ldiv
 .libc._Atexit    0x002898         0x18 c:/program files (x86)/microchip/xc16/v1.31/bin/bin/../../lib\liblega-c-elf.a(xatexit.XX_elo)
                  0x002898                  __Atexit
 .libc._Dnorm     0x0028b0         0x98 c:/program files (x86)/microchip/xc16/v1.31/bin/bin/../../lib\liblega-c-elf.a(xdnorm.XX_elo)
                  0x0028b0                  __Dnorm
 .libc._LDscale
                  0x002948         0xf6 c:/program files (x86)/microchip/xc16/v1.31/bin/bin/../../lib\liblega-c-elf.a(xldscale.XX_elo)
                  0x002948                  __LDscale
 .libc._Genld     0x002a3e        0x264 c:/program files (x86)/microchip/xc16/v1.31/bin/bin/../../lib\liblega-c-elf.a(xgenld.XX_eo)
                  0x002a3e                  __Genld
 .libc.div        0x002ca2         0x16 c:/program files (x86)/microchip/xc16/v1.31/bin/bin/../../lib\liblega-c-elf.a(div.XX_elo)
                  0x002ca2                  _div
 .libc.doclose    0x002cb8          0x4 c:/program files (x86)/microchip/xc16/v1.31/bin/bin/../../lib\liblega-pic30-elf.a(close.Leo)
 .libc.doremove
                  0x002cbc          0x4 c:/program files (x86)/microchip/xc16/v1.31/bin/bin/../../lib\liblega-pic30-elf.a(remove.Leo)
 .libm.eqdf2      0x002cc0          0xa c:/program files (x86)/microchip/xc16/v1.31/bin/bin/../../lib\libm-elf.a(deqltle.eo)
                  0x002cc0                  ___eqdf2
                  0x002cc0                  ___ltdf2
                  0x002cc0                  ___ledf2
 .libm.gtdf2      0x002cca          0xa c:/program files (x86)/microchip/xc16/v1.31/bin/bin/../../lib\libm-elf.a(dgtge.eo)
                  0x002cca                  ___gtdf2
                  0x002cca                  ___gedf2
 .libm.divdf3     0x002cd4         0xb4 c:/program files (x86)/microchip/xc16/v1.31/bin/bin/../../lib\libm-elf.a(divdf3.eo)
                  0x002cd4                  ___divdf3
 .libm.dpack      0x002d88         0x58 c:/program files (x86)/microchip/xc16/v1.31/bin/bin/../../lib\libm-elf.a(dpack.eo)
                  0x002d88                  __dpack
 .libm.dunpack2
                  0x002de0         0x32 c:/program files (x86)/microchip/xc16/v1.31/bin/bin/../../lib\libm-elf.a(dunpack2.eo)
                  0x002de0                  __dunpack2
                  0x002e02                  __dreturnNaN
                  0x002e08                  __dunpack2exit
 .libm.extendsfdf2
                  0x002e12         0x3e c:/program files (x86)/microchip/xc16/v1.31/bin/bin/../../lib\libm-elf.a(extendsfdf.eo)
                  0x002e12                  ___extendsfdf2
 .libm.fixdfsi    0x002e50         0x58 c:/program files (x86)/microchip/xc16/v1.31/bin/bin/../../lib\libm-elf.a(fixdfsi.eo)
                  0x002e50                  _(float, int, long long, double, float, short, int)
 .libm.floatsidf
                  0x002ea8          0x6 c:/program files (x86)/microchip/xc16/v1.31/bin/bin/../../lib\libm-elf.a(floatsidf.eo)
                  0x002ea8                  ___floatsidf
 .libm.muldf3     0x002eae         0xea c:/program files (x86)/microchip/xc16/v1.31/bin/bin/../../lib\libm-elf.a(muldf3.eo)
                  0x002eae                  ___muldf3
 .libm.subdf3     0x002f98          0x4 c:/program files (x86)/microchip/xc16/v1.31/bin/bin/../../lib\libm-elf.a(subdf3.eo)
                  0x002f98                  ___subdf3
 .libm.umodsi3    0x002f9c          0x6 c:/program files (x86)/microchip/xc16/v1.31/bin/bin/../../lib\libm-elf.a(umodsi3.eo)
                  0x002f9c                  ___umodsi3
 .libm.mulsi3     0x002fa2          0xc c:/program files (x86)/microchip/xc16/v1.31/bin/bin/../../lib\libm-elf.a(mulsi3.eo)
                  0x002fa2                  ___mulp32peds3
                  0x002fa2                  ___mulsi3
                  0x002fa2                  ___mulp32eds3
 .libm.adddf3     0x002fae         0xfa c:/program files (x86)/microchip/xc16/v1.31/bin/bin/../../lib\libm-elf.a(adddf3.eo)
                  0x002fae                  ___adddf3
 .libm.dcompare
                  0x0030a8         0x52 c:/program files (x86)/microchip/xc16/v1.31/bin/bin/../../lib\libm-elf.a(dcompare.eo)
                  0x0030a8                  __dcompare
 .libm.dPropagateNaN
                  0x0030fa         0x1c c:/program files (x86)/microchip/xc16/v1.31/bin/bin/../../lib\libm-elf.a(dpropagateNaN.eo)
                  0x0030fa                  __dPropagateNaN
 .libm.dtype      0x003116         0x24 c:/program files (x86)/microchip/xc16/v1.31/bin/bin/../../lib\libm-elf.a(dtype.eo)
                  0x003116                  __dtype
 .libm.dunpack    0x00313a         0x4e c:/program files (x86)/microchip/xc16/v1.31/bin/bin/../../lib\libm-elf.a(dunpack.eo)
                  0x00313a                  __dunpack
 .libm.floatdidf
                  0x003188         0x20 c:/program files (x86)/microchip/xc16/v1.31/bin/bin/../../lib\libm-elf.a(floatdidf.eo)
                  0x003188                  ___floatdidf
 .libm.floatundidf
                  0x0031a8         0x56 c:/program files (x86)/microchip/xc16/v1.31/bin/bin/../../lib\libm-elf.a(floatundidf.eo)
                  0x0031a8                  ___floatundidf

usercode
 *(usercode)

__FBS
 *(__FBS.sec*)

__FSS
 *(__FSS.sec*)

__FGS             0xf80004          0x2
 *(__FGS.sec*)
 __FGS.sec        0xf80004          0x2 FGS
                  0xf80004                  __FGS.sec

__FOSCSEL         0xf80006          0x2
 *(__FOSCSEL.sec*)
 __FOSCSEL.sec    0xf80006          0x2 build/default/production/_ext/1077454706/mcu.o

__FOSC            0xf80008          0x2
 *(__FOSC.sec*)
 __FOSC.sec       0xf80008          0x2 build/default/production/_ext/1077454706/mcu.o

__FWDT            0xf8000a          0x2
 *(__FWDT.sec*)
 __FWDT.sec       0xf8000a          0x2 build/default/production/_ext/1077454706/mcu.o

__FPOR            0xf8000c          0x2
 *(__FPOR.sec*)
 __FPOR.sec       0xf8000c          0x2 build/default/production/_ext/1077454706/mcu.o

__FICD            0xf8000e          0x2
 *(__FICD.sec*)
 __FICD.sec       0xf8000e          0x2 build/default/production/_ext/1077454706/mcu.o

__FUID0
 *(__FUID0.sec*)

__FUID1
 *(__FUID1.sec*)

__FUID2
 *(__FUID2.sec*)

__FUID3
 *(__FUID3.sec*)

.comment          0x000000         0x5e
 *(.comment)
 .comment         0x000000         0x5e c:/program files (x86)/microchip/xc16/v1.31/bin/bin/../../lib\liblega-c-elf.a(xfiles.XX_eo)

.debug_info       0x000000      0x22601
 *(.debug_info)
 .debug_info      0x000000        0x501 build/default/production/_ext/1077471063/estWind.o
 .debug_info      0x000501        0x47e build/default/production/_ext/1077471063/estYawDrift.o
 .debug_info      0x00097f        0xbbb build/default/production/_ext/1077471063/gpsParseCommon.o
 .debug_info      0x00153a        0x8c6 build/default/production/_ext/1077471063/gpsParseSTD.o
 .debug_info      0x001e00        0x16a build/default/production/_ext/1077471063/gpsParseUBX.o
 .debug_info      0x001f6a        0xd10 build/default/production/_ext/1077471063/mathlibNAV.o
 .debug_info      0x002c7a       0x11be build/default/production/_ext/1077471063/rmat.o
 .debug_info      0x003e38        0x6d5 build/default/production/_ext/1077471063/libDCM.o
 .debug_info      0x00450d        0x850 build/default/production/_ext/1077471063/deadReckoning.o
 .debug_info      0x004d5d        0x16b build/default/production/_ext/1077471063/gpsParseMTEK.o
 .debug_info      0x004ec8        0x3e4 build/default/production/_ext/1077471063/estAltitude.o
 .debug_info      0x0052ac       0x1aa7 build/default/production/_ext/1077454706/background.o
 .debug_info      0x006d53        0x773 build/default/production/_ext/1077454706/libUDB.o
 .debug_info      0x0074c6       0x1cb2 build/default/production/_ext/1077454706/servoOut.o
 .debug_info      0x009178        0x159 build/default/production/_ext/1077454706/osd.o
 .debug_info      0x0092d1        0x15d build/default/production/_ext/1077454706/24LC256.o
 .debug_info      0x00942e        0xdbb build/default/production/_ext/1077454706/events.o
 .debug_info      0x00a1e9        0xe52 build/default/production/_ext/1077454706/mpu6000.o
 .debug_info      0x00b03b       0x15ad build/default/production/_ext/1077454706/spiUtils.o
 .debug_info      0x00c5e8       0x1ad4 build/default/production/_ext/1077454706/analog2digital_udb5.o
 .debug_info      0x00e0bc         0xb1 build/default/production/_ext/1077454706/traps_asm.o
 .debug_info      0x00e16d        0x169 build/default/production/_ext/1077454706/analog2digital_udb4.o
 .debug_info      0x00e2d6        0x96e build/default/production/_ext/1077454706/mcu.o
 .debug_info      0x00ec44        0x6b0 build/default/production/_ext/1077454706/eeprom_udb4.o
 .debug_info      0x00f2f4        0x48b build/default/production/_ext/1077454706/traps.o
 .debug_info      0x00f77f        0x8ca build/default/production/_ext/1077454706/barometer.o
 .debug_info      0x010049        0x15a build/default/production/_ext/1077454706/I2C1.o
 .debug_info      0x0101a3       0x1139 build/default/production/_ext/1077454706/I2C2.o
 .debug_info      0x0112dc        0x62a build/default/production/_ext/1077454706/magnetometer.o
 .debug_info      0x011906       0x2850 build/default/production/_ext/1077454706/radioIn.o
 .debug_info      0x014156       0x1861 build/default/production/_ext/1077454706/serialIO.o
 .debug_info      0x0159b7        0x919 build/default/production/_ext/1077454706/read.o
 .debug_info      0x0162d0        0x163 build/default/production/_ext/1077454706/uart.o
 .debug_info      0x016433        0x8fe build/default/production/_ext/1077454706/write.o
 .debug_info      0x016d31         0xb5 build/default/production/_ext/679848855/madd.o
 .debug_info      0x016de6         0xb5 build/default/production/_ext/679848855/mmul.o
 .debug_info      0x016e9b         0xb5 build/default/production/_ext/679848855/mscl.o
 .debug_info      0x016f50         0xb5 build/default/production/_ext/679848855/msub.o
 .debug_info      0x017005         0xb5 build/default/production/_ext/679848855/mtrp.o
 .debug_info      0x0170ba         0xb5 build/default/production/_ext/679848855/vadd.o
 .debug_info      0x01716f         0xb5 build/default/production/_ext/679848855/vcon.o
 .debug_info      0x017224         0xb6 build/default/production/_ext/679848855/vcopy.o
 .debug_info      0x0172da         0xb5 build/default/production/_ext/679848855/vcor.o
 .debug_info      0x01738f         0xb5 build/default/production/_ext/679848855/vdot.o
 .debug_info      0x017444         0xb5 build/default/production/_ext/679848855/vmax.o
 .debug_info      0x0174f9         0xb5 build/default/production/_ext/679848855/vmin.o
 .debug_info      0x0175ae         0xb5 build/default/production/_ext/679848855/vmul.o
 .debug_info      0x017663         0xb5 build/default/production/_ext/679848855/vneg.o
 .debug_info      0x017718         0xb5 build/default/production/_ext/679848855/vpow.o
 .debug_info      0x0177cd         0xb5 build/default/production/_ext/679848855/vscl.o
 .debug_info      0x017882         0xb5 build/default/production/_ext/679848855/vsub.o
 .debug_info      0x017937         0xb6 build/default/production/_ext/679848855/vzpad.o
 .debug_info      0x0179ed        0x161 build/default/production/_ext/1472/config_tests.o
 .debug_info      0x017b4e        0x7e8 build/default/production/_ext/1472/behavior.o
 .debug_info      0x018336        0x4f6 build/default/production/_ext/1472/cameraCntrl.o
 .debug_info      0x01882c        0x1b4 build/default/production/_ext/1472/main.o
 .debug_info      0x0189e0        0xdd5 build/default/production/_ext/1472/navigate.o
 .debug_info      0x0197b5        0xaf5 build/default/production/_ext/1472/pitchCntrl.o
 .debug_info      0x01a2aa        0x969 build/default/production/_ext/1472/rollCntrl.o
 .debug_info      0x01ac13        0x75d build/default/production/_ext/1472/servoMix.o
 .debug_info      0x01b370        0xa30 build/default/production/_ext/1472/states.o
 .debug_info      0x01bda0        0x849 build/default/production/_ext/1472/yawCntrl.o
 .debug_info      0x01c5e9        0xf43 build/default/production/_ext/1472/telemetry.o
 .debug_info      0x01d52c        0x582 build/default/production/_ext/1472/servoPrepare.o
 .debug_info      0x01daae        0x980 build/default/production/_ext/1472/flightplan-waypoints.o
 .debug_info      0x01e42e        0x164 build/default/production/_ext/1472/flightplan-logo.o
 .debug_info      0x01e592        0x15b build/default/production/_ext/1472/mp_osd.o
 .debug_info      0x01e6ed       0x17c4 build/default/production/_ext/1472/altitudeCntrl.o
 .debug_info      0x01feb1        0x15c build/default/production/_ext/1472/MAVLink.o
 .debug_info      0x02000d        0x586 build/default/production/_ext/1472/mode_switch.o
 .debug_info      0x020593        0x159 build/default/production/_ext/1472/data_services.o
 .debug_info      0x0206ec        0x158 build/default/production/_ext/1472/data_storage.o
 .debug_info      0x020844        0x164 build/default/production/_ext/1472/nv_memory_table.o
 .debug_info      0x0209a8        0x164 build/default/production/_ext/1472/parameter_table.o
 .debug_info      0x020b0c        0x162 build/default/production/_ext/1472/airspeedCntrl.o
 .debug_info      0x020c6e        0x16a build/default/production/_ext/1472/altitudeCntrlVariable.o
 .debug_info      0x020dd8        0x249 build/default/production/_ext/1472/euler_angles.o
 .debug_info      0x021021        0x153 build/default/production/_ext/1472/console.o
 .debug_info      0x021174        0x5ac build/default/production/_ext/1472/sonarCntrl.o
 .debug_info      0x021720        0xee1 build/default/production/_ext/1472/motorCntrl.o
 *(.gnu.linkonce.wi.*)

.debug_abbrev     0x000000       0x3cf6
 *(.debug_abbrev)
 .debug_abbrev    0x000000         0xe7 build/default/production/_ext/1077471063/estWind.o
 .debug_abbrev    0x0000e7         0xcf build/default/production/_ext/1077471063/estYawDrift.o
 .debug_abbrev    0x0001b6        0x142 build/default/production/_ext/1077471063/gpsParseCommon.o
 .debug_abbrev    0x0002f8        0x17b build/default/production/_ext/1077471063/gpsParseSTD.o
 .debug_abbrev    0x000473         0x1f build/default/production/_ext/1077471063/gpsParseUBX.o
 .debug_abbrev    0x000492        0x1a4 build/default/production/_ext/1077471063/mathlibNAV.o
 .debug_abbrev    0x000636        0x23d build/default/production/_ext/1077471063/rmat.o
 .debug_abbrev    0x000873        0x120 build/default/production/_ext/1077471063/libDCM.o
 .debug_abbrev    0x000993         0xeb build/default/production/_ext/1077471063/deadReckoning.o
 .debug_abbrev    0x000a7e         0x1f build/default/production/_ext/1077471063/gpsParseMTEK.o
 .debug_abbrev    0x000a9d         0x96 build/default/production/_ext/1077471063/estAltitude.o
 .debug_abbrev    0x000b33        0x14f build/default/production/_ext/1077454706/background.o
 .debug_abbrev    0x000c82        0x1ac build/default/production/_ext/1077454706/libUDB.o
 .debug_abbrev    0x000e2e        0x158 build/default/production/_ext/1077454706/servoOut.o
 .debug_abbrev    0x000f86         0x1f build/default/production/_ext/1077454706/osd.o
 .debug_abbrev    0x000fa5         0x1f build/default/production/_ext/1077454706/24LC256.o
 .debug_abbrev    0x000fc4        0x1b6 build/default/production/_ext/1077454706/events.o
 .debug_abbrev    0x00117a        0x128 build/default/production/_ext/1077454706/mpu6000.o
 .debug_abbrev    0x0012a2        0x1e1 build/default/production/_ext/1077454706/spiUtils.o
 .debug_abbrev    0x001483        0x199 build/default/production/_ext/1077454706/analog2digital_udb5.o
 .debug_abbrev    0x00161c         0x14 build/default/production/_ext/1077454706/traps_asm.o
 .debug_abbrev    0x001630         0x1f build/default/production/_ext/1077454706/analog2digital_udb4.o
 .debug_abbrev    0x00164f        0x131 build/default/production/_ext/1077454706/mcu.o
 .debug_abbrev    0x001780        0x112 build/default/production/_ext/1077454706/eeprom_udb4.o
 .debug_abbrev    0x001892         0xd2 build/default/production/_ext/1077454706/traps.o
 .debug_abbrev    0x001964        0x1f4 build/default/production/_ext/1077454706/barometer.o
 .debug_abbrev    0x001b58         0x1f build/default/production/_ext/1077454706/I2C1.o
 .debug_abbrev    0x001b77        0x1e9 build/default/production/_ext/1077454706/I2C2.o
 .debug_abbrev    0x001d60        0x177 build/default/production/_ext/1077454706/magnetometer.o
 .debug_abbrev    0x001ed7        0x1c5 build/default/production/_ext/1077454706/radioIn.o
 .debug_abbrev    0x00209c        0x153 build/default/production/_ext/1077454706/serialIO.o
 .debug_abbrev    0x0021ef        0x119 build/default/production/_ext/1077454706/read.o
 .debug_abbrev    0x002308         0x1f build/default/production/_ext/1077454706/uart.o
 .debug_abbrev    0x002327        0x110 build/default/production/_ext/1077454706/write.o
 .debug_abbrev    0x002437         0x14 build/default/production/_ext/679848855/madd.o
 .debug_abbrev    0x00244b         0x14 build/default/production/_ext/679848855/mmul.o
 .debug_abbrev    0x00245f         0x14 build/default/production/_ext/679848855/mscl.o
 .debug_abbrev    0x002473         0x14 build/default/production/_ext/679848855/msub.o
 .debug_abbrev    0x002487         0x14 build/default/production/_ext/679848855/mtrp.o
 .debug_abbrev    0x00249b         0x14 build/default/production/_ext/679848855/vadd.o
 .debug_abbrev    0x0024af         0x14 build/default/production/_ext/679848855/vcon.o
 .debug_abbrev    0x0024c3         0x14 build/default/production/_ext/679848855/vcopy.o
 .debug_abbrev    0x0024d7         0x14 build/default/production/_ext/679848855/vcor.o
 .debug_abbrev    0x0024eb         0x14 build/default/production/_ext/679848855/vdot.o
 .debug_abbrev    0x0024ff         0x14 build/default/production/_ext/679848855/vmax.o
 .debug_abbrev    0x002513         0x14 build/default/production/_ext/679848855/vmin.o
 .debug_abbrev    0x002527         0x14 build/default/production/_ext/679848855/vmul.o
 .debug_abbrev    0x00253b         0x14 build/default/production/_ext/679848855/vneg.o
 .debug_abbrev    0x00254f         0x14 build/default/production/_ext/679848855/vpow.o
 .debug_abbrev    0x002563         0x14 build/default/production/_ext/679848855/vscl.o
 .debug_abbrev    0x002577         0x14 build/default/production/_ext/679848855/vsub.o
 .debug_abbrev    0x00258b         0x14 build/default/production/_ext/679848855/vzpad.o
 .debug_abbrev    0x00259f         0x1f build/default/production/_ext/1472/config_tests.o
 .debug_abbrev    0x0025be        0x168 build/default/production/_ext/1472/behavior.o
 .debug_abbrev    0x002726        0x103 build/default/production/_ext/1472/cameraCntrl.o
 .debug_abbrev    0x002829         0x5f build/default/production/_ext/1472/main.o
 .debug_abbrev    0x002888        0x1ec build/default/production/_ext/1472/navigate.o
 .debug_abbrev    0x002a74        0x184 build/default/production/_ext/1472/pitchCntrl.o
 .debug_abbrev    0x002bf8        0x15a build/default/production/_ext/1472/rollCntrl.o
 .debug_abbrev    0x002d52        0x124 build/default/production/_ext/1472/servoMix.o
 .debug_abbrev    0x002e76        0x166 build/default/production/_ext/1472/states.o
 .debug_abbrev    0x002fdc        0x173 build/default/production/_ext/1472/yawCntrl.o
 .debug_abbrev    0x00314f        0x1e3 build/default/production/_ext/1472/telemetry.o
 .debug_abbrev    0x003332         0xe8 build/default/production/_ext/1472/servoPrepare.o
 .debug_abbrev    0x00341a        0x1a9 build/default/production/_ext/1472/flightplan-waypoints.o
 .debug_abbrev    0x0035c3         0x1f build/default/production/_ext/1472/flightplan-logo.o
 .debug_abbrev    0x0035e2         0x1f build/default/production/_ext/1472/mp_osd.o
 .debug_abbrev    0x003601        0x232 build/default/production/_ext/1472/altitudeCntrl.o
 .debug_abbrev    0x003833         0x1f build/default/production/_ext/1472/MAVLink.o
 .debug_abbrev    0x003852         0xd7 build/default/production/_ext/1472/mode_switch.o
 .debug_abbrev    0x003929         0x1f build/default/production/_ext/1472/data_services.o
 .debug_abbrev    0x003948         0x1f build/default/production/_ext/1472/data_storage.o
 .debug_abbrev    0x003967         0x1f build/default/production/_ext/1472/nv_memory_table.o
 .debug_abbrev    0x003986         0x1f build/default/production/_ext/1472/parameter_table.o
 .debug_abbrev    0x0039a5         0x1f build/default/production/_ext/1472/airspeedCntrl.o
 .debug_abbrev    0x0039c4         0x1f build/default/production/_ext/1472/altitudeCntrlVariable.o
 .debug_abbrev    0x0039e3         0x8f build/default/production/_ext/1472/euler_angles.o
 .debug_abbrev    0x003a72         0x1f build/default/production/_ext/1472/console.o
 .debug_abbrev    0x003a91        0x148 build/default/production/_ext/1472/sonarCntrl.o
 .debug_abbrev    0x003bd9        0x11d build/default/production/_ext/1472/motorCntrl.o

.debug_line       0x000000       0x4aff
 *(.debug_line)
 .debug_line      0x000000        0x196 build/default/production/_ext/1077471063/estWind.o
 .debug_line      0x000196        0x160 build/default/production/_ext/1077471063/estYawDrift.o
 .debug_line      0x0002f6        0x1b1 build/default/production/_ext/1077471063/gpsParseCommon.o
 .debug_line      0x0004a7        0x142 build/default/production/_ext/1077471063/gpsParseSTD.o
 .debug_line      0x0005e9         0x1a build/default/production/_ext/1077471063/gpsParseUBX.o
 .debug_line      0x000603        0x213 build/default/production/_ext/1077471063/mathlibNAV.o
 .debug_line      0x000816        0x2f1 build/default/production/_ext/1077471063/rmat.o
 .debug_line      0x000b07        0x13c build/default/production/_ext/1077471063/libDCM.o
 .debug_line      0x000c43        0x1c5 build/default/production/_ext/1077471063/deadReckoning.o
 .debug_line      0x000e08         0x1a build/default/production/_ext/1077471063/gpsParseMTEK.o
 .debug_line      0x000e22         0x64 build/default/production/_ext/1077471063/estAltitude.o
 .debug_line      0x000e86        0x1a8 build/default/production/_ext/1077454706/background.o
 .debug_line      0x00102e        0x14a build/default/production/_ext/1077454706/libUDB.o
 .debug_line      0x001178        0x187 build/default/production/_ext/1077454706/servoOut.o
 .debug_line      0x0012ff         0x1a build/default/production/_ext/1077454706/osd.o
 .debug_line      0x001319         0x1a build/default/production/_ext/1077454706/24LC256.o
 .debug_line      0x001333        0x176 build/default/production/_ext/1077454706/events.o
 .debug_line      0x0014a9        0x16e build/default/production/_ext/1077454706/mpu6000.o
 .debug_line      0x001617        0x195 build/default/production/_ext/1077454706/spiUtils.o
 .debug_line      0x0017ac        0x184 build/default/production/_ext/1077454706/analog2digital_udb5.o
 .debug_line      0x001930         0x5b build/default/production/_ext/1077454706/traps_asm.o
 .debug_line      0x00198b         0x1a build/default/production/_ext/1077454706/analog2digital_udb4.o
 .debug_line      0x0019a5        0x13f build/default/production/_ext/1077454706/mcu.o
 .debug_line      0x001ae4        0x17d build/default/production/_ext/1077454706/eeprom_udb4.o
 .debug_line      0x001c61        0x112 build/default/production/_ext/1077454706/traps.o
 .debug_line      0x001d73        0x1d7 build/default/production/_ext/1077454706/barometer.o
 .debug_line      0x001f4a         0x1a build/default/production/_ext/1077454706/I2C1.o
 .debug_line      0x001f64        0x1e6 build/default/production/_ext/1077454706/I2C2.o
 .debug_line      0x00214a        0x1c3 build/default/production/_ext/1077454706/magnetometer.o
 .debug_line      0x00230d        0x197 build/default/production/_ext/1077454706/radioIn.o
 .debug_line      0x0024a4        0x196 build/default/production/_ext/1077454706/serialIO.o
 .debug_line      0x00263a         0xc4 build/default/production/_ext/1077454706/read.o
 .debug_line      0x0026fe         0x1a build/default/production/_ext/1077454706/uart.o
 .debug_line      0x002718         0xbe build/default/production/_ext/1077454706/write.o
 .debug_line      0x0027d6         0x69 build/default/production/_ext/679848855/madd.o
 .debug_line      0x00283f         0x83 build/default/production/_ext/679848855/mmul.o
 .debug_line      0x0028c2         0x69 build/default/production/_ext/679848855/mscl.o
 .debug_line      0x00292b         0x6e build/default/production/_ext/679848855/msub.o
 .debug_line      0x002999         0x6b build/default/production/_ext/679848855/mtrp.o
 .debug_line      0x002a04         0x68 build/default/production/_ext/679848855/vadd.o
 .debug_line      0x002a6c         0xc0 build/default/production/_ext/679848855/vcon.o
 .debug_line      0x002b2c         0x52 build/default/production/_ext/679848855/vcopy.o
 .debug_line      0x002b7e         0x61 build/default/production/_ext/679848855/vcor.o
 .debug_line      0x002bdf         0x68 build/default/production/_ext/679848855/vdot.o
 .debug_line      0x002c47         0x56 build/default/production/_ext/679848855/vmax.o
 .debug_line      0x002c9d         0x56 build/default/production/_ext/679848855/vmin.o
 .debug_line      0x002cf3         0x69 build/default/production/_ext/679848855/vmul.o
 .debug_line      0x002d5c         0x6b build/default/production/_ext/679848855/vneg.o
 .debug_line      0x002dc7         0x67 build/default/production/_ext/679848855/vpow.o
 .debug_line      0x002e2e         0x69 build/default/production/_ext/679848855/vscl.o
 .debug_line      0x002e97         0x6d build/default/production/_ext/679848855/vsub.o
 .debug_line      0x002f04         0x58 build/default/production/_ext/679848855/vzpad.o
 .debug_line      0x002f5c         0x1a build/default/production/_ext/1472/config_tests.o
 .debug_line      0x002f76        0x186 build/default/production/_ext/1472/behavior.o
 .debug_line      0x0030fc        0x118 build/default/production/_ext/1472/cameraCntrl.o
 .debug_line      0x003214         0x45 build/default/production/_ext/1472/main.o
 .debug_line      0x003259        0x220 build/default/production/_ext/1472/navigate.o
 .debug_line      0x003479        0x1a6 build/default/production/_ext/1472/pitchCntrl.o
 .debug_line      0x00361f        0x199 build/default/production/_ext/1472/rollCntrl.o
 .debug_line      0x0037b8        0x121 build/default/production/_ext/1472/servoMix.o
 .debug_line      0x0038d9        0x219 build/default/production/_ext/1472/states.o
 .debug_line      0x003af2        0x17e build/default/production/_ext/1472/yawCntrl.o
 .debug_line      0x003c70        0x263 build/default/production/_ext/1472/telemetry.o
 .debug_line      0x003ed3        0x142 build/default/production/_ext/1472/servoPrepare.o
 .debug_line      0x004015        0x17d build/default/production/_ext/1472/flightplan-waypoints.o
 .debug_line      0x004192         0x1a build/default/production/_ext/1472/flightplan-logo.o
 .debug_line      0x0041ac         0x1a build/default/production/_ext/1472/mp_osd.o
 .debug_line      0x0041c6        0x2ce build/default/production/_ext/1472/altitudeCntrl.o
 .debug_line      0x004494         0x1a build/default/production/_ext/1472/MAVLink.o
 .debug_line      0x0044ae        0x10b build/default/production/_ext/1472/mode_switch.o
 .debug_line      0x0045b9         0x1a build/default/production/_ext/1472/data_services.o
 .debug_line      0x0045d3         0x1a build/default/production/_ext/1472/data_storage.o
 .debug_line      0x0045ed         0x1a build/default/production/_ext/1472/nv_memory_table.o
 .debug_line      0x004607         0x1a build/default/production/_ext/1472/parameter_table.o
 .debug_line      0x004621         0x1a build/default/production/_ext/1472/airspeedCntrl.o
 .debug_line      0x00463b         0x1a build/default/production/_ext/1472/altitudeCntrlVariable.o
 .debug_line      0x004655        0x120 build/default/production/_ext/1472/euler_angles.o
 .debug_line      0x004775         0x1a build/default/production/_ext/1472/console.o
 .debug_line      0x00478f        0x14b build/default/production/_ext/1472/sonarCntrl.o
 .debug_line      0x0048da        0x225 build/default/production/_ext/1472/motorCntrl.o

.debug_frame      0x000000       0x29fe
 *(.debug_frame)
 .debug_frame     0x000000         0x30 build/default/production/_ext/1077471063/estWind.o
 .debug_frame     0x000030         0x4c build/default/production/_ext/1077471063/estYawDrift.o
 .debug_frame     0x00007c         0xac build/default/production/_ext/1077471063/gpsParseCommon.o
 .debug_frame     0x000128        0x148 build/default/production/_ext/1077471063/gpsParseSTD.o
 .debug_frame     0x000270        0x2ca build/default/production/_ext/1077471063/mathlibNAV.o
 .debug_frame     0x00053a        0x280 build/default/production/_ext/1077471063/rmat.o
 .debug_frame     0x0007ba         0xfa build/default/production/_ext/1077471063/libDCM.o
 .debug_frame     0x0008b4         0x36 build/default/production/_ext/1077471063/deadReckoning.o
 .debug_frame     0x0008ea         0xe6 build/default/production/_ext/1077471063/estAltitude.o
 .debug_frame     0x0009d0        0x14c build/default/production/_ext/1077454706/background.o
 .debug_frame     0x000b1c         0xbc build/default/production/_ext/1077454706/libUDB.o
 .debug_frame     0x000bd8        0x10c build/default/production/_ext/1077454706/servoOut.o
 .debug_frame     0x000ce4        0x104 build/default/production/_ext/1077454706/events.o
 .debug_frame     0x000de8         0xca build/default/production/_ext/1077454706/mpu6000.o
 .debug_frame     0x000eb2        0x158 build/default/production/_ext/1077454706/spiUtils.o
 .debug_frame     0x00100a         0x66 build/default/production/_ext/1077454706/analog2digital_udb5.o
 .debug_frame     0x001070         0x84 build/default/production/_ext/1077454706/mcu.o
 .debug_frame     0x0010f4        0x16a build/default/production/_ext/1077454706/eeprom_udb4.o
 .debug_frame     0x00125e        0x170 build/default/production/_ext/1077454706/traps.o
 .debug_frame     0x0013ce         0xf0 build/default/production/_ext/1077454706/barometer.o
 .debug_frame     0x0014be        0x2f4 build/default/production/_ext/1077454706/I2C2.o
 .debug_frame     0x0017b2         0x72 build/default/production/_ext/1077454706/magnetometer.o
 .debug_frame     0x001824        0x230 build/default/production/_ext/1077454706/radioIn.o
 .debug_frame     0x001a54        0x1f4 build/default/production/_ext/1077454706/serialIO.o
 .debug_frame     0x001c48         0x30 build/default/production/_ext/1077454706/read.o
 .debug_frame     0x001c78         0x30 build/default/production/_ext/1077454706/write.o
 .debug_frame     0x001ca8         0xd8 build/default/production/_ext/1472/behavior.o
 .debug_frame     0x001d80         0xbc build/default/production/_ext/1472/cameraCntrl.o
 .debug_frame     0x001e3c         0x30 build/default/production/_ext/1472/main.o
 .debug_frame     0x001e6c        0x118 build/default/production/_ext/1472/navigate.o
 .debug_frame     0x001f84         0x82 build/default/production/_ext/1472/pitchCntrl.o
 .debug_frame     0x002006         0x82 build/default/production/_ext/1472/rollCntrl.o
 .debug_frame     0x002088         0x84 build/default/production/_ext/1472/servoMix.o
 .debug_frame     0x00210c        0x1d4 build/default/production/_ext/1472/states.o
 .debug_frame     0x0022e0         0x68 build/default/production/_ext/1472/yawCntrl.o
 .debug_frame     0x002348        0x1ca build/default/production/_ext/1472/telemetry.o
 .debug_frame     0x002512         0x68 build/default/production/_ext/1472/servoPrepare.o
 .debug_frame     0x00257a        0x170 build/default/production/_ext/1472/flightplan-waypoints.o
 .debug_frame     0x0026ea        0x1a2 build/default/production/_ext/1472/altitudeCntrl.o
 .debug_frame     0x00288c         0xa0 build/default/production/_ext/1472/mode_switch.o
 .debug_frame     0x00292c         0x30 build/default/production/_ext/1472/euler_angles.o
 .debug_frame     0x00295c         0x68 build/default/production/_ext/1472/sonarCntrl.o
 .debug_frame     0x0029c4         0x3a build/default/production/_ext/1472/motorCntrl.o

.debug_str        0x000000       0x28b3
 *(.debug_str)
 .debug_str       0x000000         0x2e build/default/production/_ext/1077471063/estWind.o
 .debug_str       0x00002e         0x5b build/default/production/_ext/1077471063/estYawDrift.o
 .debug_str       0x000089        0x14e build/default/production/_ext/1077471063/gpsParseCommon.o
 .debug_str       0x0001d7         0xe2 build/default/production/_ext/1077471063/gpsParseSTD.o
 .debug_str       0x0002b9         0xaa build/default/production/_ext/1077471063/mathlibNAV.o
 .debug_str       0x000363        0x1c8 build/default/production/_ext/1077471063/rmat.o
 .debug_str       0x00052b         0x49 build/default/production/_ext/1077471063/libDCM.o
 .debug_str       0x000574        0x161 build/default/production/_ext/1077471063/deadReckoning.o
 .debug_str       0x0006d5         0x97 build/default/production/_ext/1077471063/estAltitude.o
 .debug_str       0x00076c         0xf2 build/default/production/_ext/1077454706/background.o
 .debug_str       0x00085e         0x67 build/default/production/_ext/1077454706/libUDB.o
 .debug_str       0x0008c5         0xea build/default/production/_ext/1077454706/servoOut.o
 .debug_str       0x0009af         0x82 build/default/production/_ext/1077454706/events.o
 .debug_str       0x000a31         0xae build/default/production/_ext/1077454706/mpu6000.o
 .debug_str       0x000adf        0x114 build/default/production/_ext/1077454706/spiUtils.o
 .debug_str       0x000bf3         0xe6 build/default/production/_ext/1077454706/analog2digital_udb5.o
 .debug_str       0x000cd9         0x65 build/default/production/_ext/1077454706/mcu.o
 .debug_str       0x000d3e         0x39 build/default/production/_ext/1077454706/eeprom_udb4.o
 .debug_str       0x000d77         0x32 build/default/production/_ext/1077454706/traps.o
 .debug_str       0x000da9         0x2f build/default/production/_ext/1077454706/barometer.o
 .debug_str       0x000dd8         0x7a build/default/production/_ext/1077454706/I2C2.o
 .debug_str       0x000e52         0x58 build/default/production/_ext/1077454706/magnetometer.o
 .debug_str       0x000eaa        0x17a build/default/production/_ext/1077454706/radioIn.o
 .debug_str       0x001024         0xa5 build/default/production/_ext/1077454706/serialIO.o
 .debug_str       0x0010c9         0x59 build/default/production/_ext/1077454706/read.o
 .debug_str       0x001122         0x59 build/default/production/_ext/1077454706/write.o
 .debug_str       0x00117b         0xca build/default/production/_ext/1472/behavior.o
 .debug_str       0x001245         0xf9 build/default/production/_ext/1472/cameraCntrl.o
 .debug_str       0x00133e         0x1d build/default/production/_ext/1472/main.o
 .debug_str       0x00135b        0x1a0 build/default/production/_ext/1472/navigate.o
 .debug_str       0x0014fb        0x1b7 build/default/production/_ext/1472/pitchCntrl.o
 .debug_str       0x0016b2        0x15b build/default/production/_ext/1472/rollCntrl.o
 .debug_str       0x00180d         0xff build/default/production/_ext/1472/servoMix.o
 .debug_str       0x00190c         0x5a build/default/production/_ext/1472/states.o
 .debug_str       0x001966         0xa6 build/default/production/_ext/1472/yawCntrl.o
 .debug_str       0x001a0c        0x331 build/default/production/_ext/1472/telemetry.o
 .debug_str       0x001d3d         0xa4 build/default/production/_ext/1472/servoPrepare.o
 .debug_str       0x001de1         0xe0 build/default/production/_ext/1472/flightplan-waypoints.o
 .debug_str       0x001ec1        0x5a3 build/default/production/_ext/1472/altitudeCntrl.o
 .debug_str       0x002464         0x13 build/default/production/_ext/1472/mode_switch.o
 .debug_str       0x002477         0xb7 build/default/production/_ext/1472/sonarCntrl.o
 .debug_str       0x00252e        0x385 build/default/production/_ext/1472/motorCntrl.o

.debug_loc
 *(.debug_loc)

.debug_macinfo
 *(.debug_macinfo)

.debug_pubnames
                  0x000000       0x34f9
 *(.debug_pubnames)
 .debug_pubnames
                  0x000000         0x35 build/default/production/_ext/1077471063/estWind.o
 .debug_pubnames
                  0x000035         0x46 build/default/production/_ext/1077471063/estYawDrift.o
 .debug_pubnames
                  0x00007b        0x25f build/default/production/_ext/1077471063/gpsParseCommon.o
 .debug_pubnames
                  0x0002da        0x1dc build/default/production/_ext/1077471063/gpsParseSTD.o
 .debug_pubnames
                  0x0004b6        0x1f1 build/default/production/_ext/1077471063/mathlibNAV.o
 .debug_pubnames
                  0x0006a7        0x1d8 build/default/production/_ext/1077471063/rmat.o
 .debug_pubnames
                  0x00087f         0xef build/default/production/_ext/1077471063/libDCM.o
 .debug_pubnames
                  0x00096e        0x148 build/default/production/_ext/1077471063/deadReckoning.o
 .debug_pubnames
                  0x000ab6        0x17f build/default/production/_ext/1077471063/estAltitude.o
 .debug_pubnames
                  0x000c35         0xcc build/default/production/_ext/1077454706/background.o
 .debug_pubnames
                  0x000d01         0xa9 build/default/production/_ext/1077454706/libUDB.o
 .debug_pubnames
                  0x000daa         0xef build/default/production/_ext/1077454706/servoOut.o
 .debug_pubnames
                  0x000e99         0x9d build/default/production/_ext/1077454706/events.o
 .debug_pubnames
                  0x000f36        0x104 build/default/production/_ext/1077454706/mpu6000.o
 .debug_pubnames
                  0x00103a        0x18b build/default/production/_ext/1077454706/spiUtils.o
 .debug_pubnames
                  0x0011c5         0x91 build/default/production/_ext/1077454706/analog2digital_udb5.o
 .debug_pubnames
                  0x001256         0xda build/default/production/_ext/1077454706/mcu.o
 .debug_pubnames
                  0x001330         0xe3 build/default/production/_ext/1077454706/eeprom_udb4.o
 .debug_pubnames
                  0x001413         0x9f build/default/production/_ext/1077454706/traps.o
 .debug_pubnames
                  0x0014b2         0x85 build/default/production/_ext/1077454706/barometer.o
 .debug_pubnames
                  0x001537         0x8d build/default/production/_ext/1077454706/I2C2.o
 .debug_pubnames
                  0x0015c4         0xab build/default/production/_ext/1077454706/magnetometer.o
 .debug_pubnames
                  0x00166f        0x12d build/default/production/_ext/1077454706/radioIn.o
 .debug_pubnames
                  0x00179c        0x121 build/default/production/_ext/1077454706/serialIO.o
 .debug_pubnames
                  0x0018bd         0x1b build/default/production/_ext/1077454706/read.o
 .debug_pubnames
                  0x0018d8         0x1c build/default/production/_ext/1077454706/write.o
 .debug_pubnames
                  0x0018f4        0x14b build/default/production/_ext/1472/behavior.o
 .debug_pubnames
                  0x001a3f        0x196 build/default/production/_ext/1472/cameraCntrl.o
 .debug_pubnames
                  0x001bd5         0x40 build/default/production/_ext/1472/main.o
 .debug_pubnames
                  0x001c15        0x1c6 build/default/production/_ext/1472/navigate.o
 .debug_pubnames
                  0x001ddb        0x1c1 build/default/production/_ext/1472/pitchCntrl.o
 .debug_pubnames
                  0x001f9c        0x176 build/default/production/_ext/1472/rollCntrl.o
 .debug_pubnames
                  0x002112         0x8d build/default/production/_ext/1472/servoMix.o
 .debug_pubnames
                  0x00219f         0x97 build/default/production/_ext/1472/states.o
 .debug_pubnames
                  0x002236         0x80 build/default/production/_ext/1472/yawCntrl.o
 .debug_pubnames
                  0x0022b6        0x2a7 build/default/production/_ext/1472/telemetry.o
 .debug_pubnames
                  0x00255d        0x141 build/default/production/_ext/1472/servoPrepare.o
 .debug_pubnames
                  0x00269e        0x17a build/default/production/_ext/1472/flightplan-waypoints.o
 .debug_pubnames
                  0x002818        0x749 build/default/production/_ext/1472/altitudeCntrl.o
 .debug_pubnames
                  0x002f61         0xb4 build/default/production/_ext/1472/mode_switch.o
 .debug_pubnames
                  0x003015         0x2c build/default/production/_ext/1472/euler_angles.o
 .debug_pubnames
                  0x003041        0x10b build/default/production/_ext/1472/sonarCntrl.o
 .debug_pubnames
                  0x00314c        0x3ad build/default/production/_ext/1472/motorCntrl.o

.debug_ranges
 *(.debug_ranges)

.debug_aranges    0x000000        0x5e0
 *(.debug_aranges)
 .debug_aranges
                  0x000000         0x18 build/default/production/_ext/1077471063/estWind.o
 .debug_aranges
                  0x000018         0x18 build/default/production/_ext/1077471063/estYawDrift.o
 .debug_aranges
                  0x000030         0x18 build/default/production/_ext/1077471063/gpsParseCommon.o
 .debug_aranges
                  0x000048         0x18 build/default/production/_ext/1077471063/gpsParseSTD.o
 .debug_aranges
                  0x000060         0x18 build/default/production/_ext/1077471063/mathlibNAV.o
 .debug_aranges
                  0x000078         0x18 build/default/production/_ext/1077471063/rmat.o
 .debug_aranges
                  0x000090         0x18 build/default/production/_ext/1077471063/libDCM.o
 .debug_aranges
                  0x0000a8         0x18 build/default/production/_ext/1077471063/deadReckoning.o
 .debug_aranges
                  0x0000c0         0x18 build/default/production/_ext/1077471063/estAltitude.o
 .debug_aranges
                  0x0000d8         0x18 build/default/production/_ext/1077454706/background.o
 .debug_aranges
                  0x0000f0         0x18 build/default/production/_ext/1077454706/libUDB.o
 .debug_aranges
                  0x000108         0x18 build/default/production/_ext/1077454706/servoOut.o
 .debug_aranges
                  0x000120         0x18 build/default/production/_ext/1077454706/events.o
 .debug_aranges
                  0x000138         0x18 build/default/production/_ext/1077454706/mpu6000.o
 .debug_aranges
                  0x000150         0x18 build/default/production/_ext/1077454706/spiUtils.o
 .debug_aranges
                  0x000168         0x18 build/default/production/_ext/1077454706/analog2digital_udb5.o
 .debug_aranges
                  0x000180         0x18 build/default/production/_ext/1077454706/traps_asm.o
 .debug_aranges
                  0x000198         0x18 build/default/production/_ext/1077454706/mcu.o
 .debug_aranges
                  0x0001b0         0x18 build/default/production/_ext/1077454706/eeprom_udb4.o
 .debug_aranges
                  0x0001c8         0x18 build/default/production/_ext/1077454706/traps.o
 .debug_aranges
                  0x0001e0         0x18 build/default/production/_ext/1077454706/barometer.o
 .debug_aranges
                  0x0001f8         0x18 build/default/production/_ext/1077454706/I2C2.o
 .debug_aranges
                  0x000210         0x18 build/default/production/_ext/1077454706/magnetometer.o
 .debug_aranges
                  0x000228         0x18 build/default/production/_ext/1077454706/radioIn.o
 .debug_aranges
                  0x000240         0x18 build/default/production/_ext/1077454706/serialIO.o
 .debug_aranges
                  0x000258         0x20 build/default/production/_ext/1077454706/read.o
 .debug_aranges
                  0x000278         0x20 build/default/production/_ext/1077454706/write.o
 .debug_aranges
                  0x000298         0x18 build/default/production/_ext/679848855/madd.o
 .debug_aranges
                  0x0002b0         0x18 build/default/production/_ext/679848855/mmul.o
 .debug_aranges
                  0x0002c8         0x18 build/default/production/_ext/679848855/mscl.o
 .debug_aranges
                  0x0002e0         0x18 build/default/production/_ext/679848855/msub.o
 .debug_aranges
                  0x0002f8         0x18 build/default/production/_ext/679848855/mtrp.o
 .debug_aranges
                  0x000310         0x18 build/default/production/_ext/679848855/vadd.o
 .debug_aranges
                  0x000328         0x18 build/default/production/_ext/679848855/vcon.o
 .debug_aranges
                  0x000340         0x18 build/default/production/_ext/679848855/vcopy.o
 .debug_aranges
                  0x000358         0x18 build/default/production/_ext/679848855/vcor.o
 .debug_aranges
                  0x000370         0x18 build/default/production/_ext/679848855/vdot.o
 .debug_aranges
                  0x000388         0x18 build/default/production/_ext/679848855/vmax.o
 .debug_aranges
                  0x0003a0         0x18 build/default/production/_ext/679848855/vmin.o
 .debug_aranges
                  0x0003b8         0x18 build/default/production/_ext/679848855/vmul.o
 .debug_aranges
                  0x0003d0         0x18 build/default/production/_ext/679848855/vneg.o
 .debug_aranges
                  0x0003e8         0x18 build/default/production/_ext/679848855/vpow.o
 .debug_aranges
                  0x000400         0x18 build/default/production/_ext/679848855/vscl.o
 .debug_aranges
                  0x000418         0x18 build/default/production/_ext/679848855/vsub.o
 .debug_aranges
                  0x000430         0x18 build/default/production/_ext/679848855/vzpad.o
 .debug_aranges
                  0x000448         0x18 build/default/production/_ext/1472/behavior.o
 .debug_aranges
                  0x000460         0x18 build/default/production/_ext/1472/cameraCntrl.o
 .debug_aranges
                  0x000478         0x18 build/default/production/_ext/1472/main.o
 .debug_aranges
                  0x000490         0x18 build/default/production/_ext/1472/navigate.o
 .debug_aranges
                  0x0004a8         0x18 build/default/production/_ext/1472/pitchCntrl.o
 .debug_aranges
                  0x0004c0         0x18 build/default/production/_ext/1472/rollCntrl.o
 .debug_aranges
                  0x0004d8         0x18 build/default/production/_ext/1472/servoMix.o
 .debug_aranges
                  0x0004f0         0x18 build/default/production/_ext/1472/states.o
 .debug_aranges
                  0x000508         0x18 build/default/production/_ext/1472/yawCntrl.o
 .debug_aranges
                  0x000520         0x18 build/default/production/_ext/1472/telemetry.o
 .debug_aranges
                  0x000538         0x18 build/default/production/_ext/1472/servoPrepare.o
 .debug_aranges
                  0x000550         0x18 build/default/production/_ext/1472/flightplan-waypoints.o
 .debug_aranges
                  0x000568         0x18 build/default/production/_ext/1472/altitudeCntrl.o
 .debug_aranges
                  0x000580         0x18 build/default/production/_ext/1472/mode_switch.o
 .debug_aranges
                  0x000598         0x18 build/default/production/_ext/1472/euler_angles.o
 .debug_aranges
                  0x0005b0         0x18 build/default/production/_ext/1472/sonarCntrl.o
 .debug_aranges
                  0x0005c8         0x18 build/default/production/_ext/1472/motorCntrl.o
                    0x0000                  WREG0 = 0x0
                    0x0000                  _WREG0 = 0x0
                    0x0002                  WREG1 = 0x2
                    0x0002                  _WREG1 = 0x2
                    0x0004                  WREG2 = 0x4
                    0x0004                  _WREG2 = 0x4
                    0x0006                  WREG3 = 0x6
                    0x0006                  _WREG3 = 0x6
                    0x0008                  WREG4 = 0x8
                    0x0008                  _WREG4 = 0x8
                    0x000a                  WREG5 = 0xa
                    0x000a                  _WREG5 = 0xa
                    0x000c                  WREG6 = 0xc
                    0x000c                  _WREG6 = 0xc
                    0x000e                  WREG7 = 0xe
                    0x000e                  _WREG7 = 0xe
                    0x0010                  WREG8 = 0x10
                    0x0010                  _WREG8 = 0x10
                    0x0012                  WREG9 = 0x12
                    0x0012                  _WREG9 = 0x12
                    0x0014                  WREG10 = 0x14
                    0x0014                  _WREG10 = 0x14
                    0x0016                  WREG11 = 0x16
                    0x0016                  _WREG11 = 0x16
                    0x0018                  WREG12 = 0x18
                    0x0018                  _WREG12 = 0x18
                    0x001a                  WREG13 = 0x1a
                    0x001a                  _WREG13 = 0x1a
                    0x001c                  WREG14 = 0x1c
                    0x001c                  _WREG14 = 0x1c
                    0x001e                  WREG15 = 0x1e
                    0x001e                  _WREG15 = 0x1e
                    0x0020                  SPLIM = 0x20
                    0x0020                  _SPLIM = 0x20
                    0x0022                  ACCAL = 0x22
                    0x0022                  _ACCAL = 0x22
                    0x0024                  ACCAH = 0x24
                    0x0024                  _ACCAH = 0x24
                    0x0026                  ACCAU = 0x26
                    0x0026                  _ACCAU = 0x26
                    0x0028                  ACCBL = 0x28
                    0x0028                  _ACCBL = 0x28
                    0x002a                  ACCBH = 0x2a
                    0x002a                  _ACCBH = 0x2a
                    0x002c                  ACCBU = 0x2c
                    0x002c                  _ACCBU = 0x2c
                    0x002e                  PCL = 0x2e
                    0x002e                  _PCL = 0x2e
                    0x0030                  PCH = 0x30
                    0x0030                  _PCH = 0x30
                    0x0032                  TBLPAG = 0x32
                    0x0032                  _TBLPAG = 0x32
                    0x0034                  PSVPAG = 0x34
                    0x0034                  _PSVPAG = 0x34
                    0x0036                  RCOUNT = 0x36
                    0x0036                  _RCOUNT = 0x36
                    0x0038                  DCOUNT = 0x38
                    0x0038                  _DCOUNT = 0x38
                    0x003a                  DOSTARTL = 0x3a
                    0x003a                  _DOSTARTL = 0x3a
                    0x003c                  DOSTARTH = 0x3c
                    0x003c                  _DOSTARTH = 0x3c
                    0x003e                  DOENDL = 0x3e
                    0x003e                  _DOENDL = 0x3e
                    0x0040                  DOENDH = 0x40
                    0x0040                  _DOENDH = 0x40
                    0x0042                  SR = 0x42
                    0x0042                  _SR = 0x42
                    0x0042                  _SRbits = 0x42
                    0x0044                  CORCON = 0x44
                    0x0044                  _CORCON = 0x44
                    0x0044                  _CORCONbits = 0x44
                    0x0046                  MODCON = 0x46
                    0x0046                  _MODCON = 0x46
                    0x0046                  _MODCONbits = 0x46
                    0x0048                  XMODSRT = 0x48
                    0x0048                  _XMODSRT = 0x48
                    0x004a                  XMODEND = 0x4a
                    0x004a                  _XMODEND = 0x4a
                    0x004c                  YMODSRT = 0x4c
                    0x004c                  _YMODSRT = 0x4c
                    0x004e                  YMODEND = 0x4e
                    0x004e                  _YMODEND = 0x4e
                    0x0050                  XBREV = 0x50
                    0x0050                  _XBREV = 0x50
                    0x0050                  _XBREVbits = 0x50
                    0x0052                  DISICNT = 0x52
                    0x0052                  _DISICNT = 0x52
                    0x0060                  CNEN1 = 0x60
                    0x0060                  _CNEN1 = 0x60
                    0x0060                  _CNEN1bits = 0x60
                    0x0062                  CNEN2 = 0x62
                    0x0062                  _CNEN2 = 0x62
                    0x0062                  _CNEN2bits = 0x62
                    0x0068                  CNPU1 = 0x68
                    0x0068                  _CNPU1 = 0x68
                    0x0068                  _CNPU1bits = 0x68
                    0x006a                  CNPU2 = 0x6a
                    0x006a                  _CNPU2 = 0x6a
                    0x006a                  _CNPU2bits = 0x6a
                    0x0080                  INTCON1 = 0x80
                    0x0080                  _INTCON1 = 0x80
                    0x0080                  _INTCON1bits = 0x80
                    0x0082                  INTCON2 = 0x82
                    0x0082                  _INTCON2 = 0x82
                    0x0082                  _INTCON2bits = 0x82
                    0x0084                  IFS0 = 0x84
                    0x0084                  _IFS0 = 0x84
                    0x0084                  _IFS0bits = 0x84
                    0x0086                  IFS1 = 0x86
                    0x0086                  _IFS1 = 0x86
                    0x0086                  _IFS1bits = 0x86
                    0x0088                  IFS2 = 0x88
                    0x0088                  _IFS2 = 0x88
                    0x0088                  _IFS2bits = 0x88
                    0x008a                  IFS3 = 0x8a
                    0x008a                  _IFS3 = 0x8a
                    0x008a                  _IFS3bits = 0x8a
                    0x008c                  IFS4 = 0x8c
                    0x008c                  _IFS4 = 0x8c
                    0x008c                  _IFS4bits = 0x8c
                    0x0094                  IEC0 = 0x94
                    0x0094                  _IEC0 = 0x94
                    0x0094                  _IEC0bits = 0x94
                    0x0096                  IEC1 = 0x96
                    0x0096                  _IEC1 = 0x96
                    0x0096                  _IEC1bits = 0x96
                    0x0098                  IEC2 = 0x98
                    0x0098                  _IEC2 = 0x98
                    0x0098                  _IEC2bits = 0x98
                    0x009a                  IEC3 = 0x9a
                    0x009a                  _IEC3 = 0x9a
                    0x009a                  _IEC3bits = 0x9a
                    0x009c                  IEC4 = 0x9c
                    0x009c                  _IEC4 = 0x9c
                    0x009c                  _IEC4bits = 0x9c
                    0x00a4                  IPC0 = 0xa4
                    0x00a4                  _IPC0 = 0xa4
                    0x00a4                  _IPC0bits = 0xa4
                    0x00a6                  IPC1 = 0xa6
                    0x00a6                  _IPC1 = 0xa6
                    0x00a6                  _IPC1bits = 0xa6
                    0x00a8                  IPC2 = 0xa8
                    0x00a8                  _IPC2 = 0xa8
                    0x00a8                  _IPC2bits = 0xa8
                    0x00aa                  IPC3 = 0xaa
                    0x00aa                  _IPC3 = 0xaa
                    0x00aa                  _IPC3bits = 0xaa
                    0x00ac                  IPC4 = 0xac
                    0x00ac                  _IPC4 = 0xac
                    0x00ac                  _IPC4bits = 0xac
                    0x00ae                  IPC5 = 0xae
                    0x00ae                  _IPC5 = 0xae
                    0x00ae                  _IPC5bits = 0xae
                    0x00b0                  IPC6 = 0xb0
                    0x00b0                  _IPC6 = 0xb0
                    0x00b0                  _IPC6bits = 0xb0
                    0x00b2                  IPC7 = 0xb2
                    0x00b2                  _IPC7 = 0xb2
                    0x00b2                  _IPC7bits = 0xb2
                    0x00b4                  IPC8 = 0xb4
                    0x00b4                  _IPC8 = 0xb4
                    0x00b4                  _IPC8bits = 0xb4
                    0x00b6                  IPC9 = 0xb6
                    0x00b6                  _IPC9 = 0xb6
                    0x00b6                  _IPC9bits = 0xb6
                    0x00b8                  IPC10 = 0xb8
                    0x00b8                  _IPC10 = 0xb8
                    0x00b8                  _IPC10bits = 0xb8
                    0x00ba                  IPC11 = 0xba
                    0x00ba                  _IPC11 = 0xba
                    0x00ba                  _IPC11bits = 0xba
                    0x00bc                  IPC12 = 0xbc
                    0x00bc                  _IPC12 = 0xbc
                    0x00bc                  _IPC12bits = 0xbc
                    0x00be                  IPC13 = 0xbe
                    0x00be                  _IPC13 = 0xbe
                    0x00be                  _IPC13bits = 0xbe
                    0x00c0                  IPC14 = 0xc0
                    0x00c0                  _IPC14 = 0xc0
                    0x00c0                  _IPC14bits = 0xc0
                    0x00c2                  IPC15 = 0xc2
                    0x00c2                  _IPC15 = 0xc2
                    0x00c2                  _IPC15bits = 0xc2
                    0x00c4                  IPC16 = 0xc4
                    0x00c4                  _IPC16 = 0xc4
                    0x00c4                  _IPC16bits = 0xc4
                    0x00c6                  IPC17 = 0xc6
                    0x00c6                  _IPC17 = 0xc6
                    0x00c6                  _IPC17bits = 0xc6
                    0x00e0                  INTTREG = 0xe0
                    0x00e0                  _INTTREG = 0xe0
                    0x00e0                  _INTTREGbits = 0xe0
                    0x0100                  TMR1 = 0x100
                    0x0100                  _TMR1 = 0x100
                    0x0102                  PR1 = 0x102
                    0x0102                  _PR1 = 0x102
                    0x0104                  T1CON = 0x104
                    0x0104                  _T1CON = 0x104
                    0x0104                  _T1CONbits = 0x104
                    0x0106                  TMR2 = 0x106
                    0x0106                  _TMR2 = 0x106
                    0x0108                  TMR3HLD = 0x108
                    0x0108                  _TMR3HLD = 0x108
                    0x010a                  TMR3 = 0x10a
                    0x010a                  _TMR3 = 0x10a
                    0x010c                  PR2 = 0x10c
                    0x010c                  _PR2 = 0x10c
                    0x010e                  PR3 = 0x10e
                    0x010e                  _PR3 = 0x10e
                    0x0110                  T2CON = 0x110
                    0x0110                  _T2CON = 0x110
                    0x0110                  _T2CONbits = 0x110
                    0x0112                  T3CON = 0x112
                    0x0112                  _T3CON = 0x112
                    0x0112                  _T3CONbits = 0x112
                    0x0114                  TMR4 = 0x114
                    0x0114                  _TMR4 = 0x114
                    0x0116                  TMR5HLD = 0x116
                    0x0116                  _TMR5HLD = 0x116
                    0x0118                  TMR5 = 0x118
                    0x0118                  _TMR5 = 0x118
                    0x011a                  PR4 = 0x11a
                    0x011a                  _PR4 = 0x11a
                    0x011c                  PR5 = 0x11c
                    0x011c                  _PR5 = 0x11c
                    0x011e                  T4CON = 0x11e
                    0x011e                  _T4CON = 0x11e
                    0x011e                  _T4CONbits = 0x11e
                    0x0120                  T5CON = 0x120
                    0x0120                  _T5CON = 0x120
                    0x0120                  _T5CONbits = 0x120
                    0x0122                  TMR6 = 0x122
                    0x0122                  _TMR6 = 0x122
                    0x0124                  TMR7HLD = 0x124
                    0x0124                  _TMR7HLD = 0x124
                    0x0126                  TMR7 = 0x126
                    0x0126                  _TMR7 = 0x126
                    0x0128                  PR6 = 0x128
                    0x0128                  _PR6 = 0x128
                    0x012a                  PR7 = 0x12a
                    0x012a                  _PR7 = 0x12a
                    0x012c                  T6CON = 0x12c
                    0x012c                  _T6CON = 0x12c
                    0x012c                  _T6CONbits = 0x12c
                    0x012e                  T7CON = 0x12e
                    0x012e                  _T7CON = 0x12e
                    0x012e                  _T7CONbits = 0x12e
                    0x0130                  TMR8 = 0x130
                    0x0130                  _TMR8 = 0x130
                    0x0132                  TMR9HLD = 0x132
                    0x0132                  _TMR9HLD = 0x132
                    0x0134                  TMR9 = 0x134
                    0x0134                  _TMR9 = 0x134
                    0x0136                  PR8 = 0x136
                    0x0136                  _PR8 = 0x136
                    0x0138                  PR9 = 0x138
                    0x0138                  _PR9 = 0x138
                    0x013a                  T8CON = 0x13a
                    0x013a                  _T8CON = 0x13a
                    0x013a                  _T8CONbits = 0x13a
                    0x013c                  T9CON = 0x13c
                    0x013c                  _T9CON = 0x13c
                    0x013c                  _T9CONbits = 0x13c
                    0x0140                  IC1BUF = 0x140
                    0x0140                  _IC1BUF = 0x140
                    0x0142                  IC1CON = 0x142
                    0x0142                  _IC1CON = 0x142
                    0x0142                  _IC1CONbits = 0x142
                    0x0144                  IC2BUF = 0x144
                    0x0144                  _IC2BUF = 0x144
                    0x0146                  IC2CON = 0x146
                    0x0146                  _IC2CON = 0x146
                    0x0146                  _IC2CONbits = 0x146
                    0x0148                  IC3BUF = 0x148
                    0x0148                  _IC3BUF = 0x148
                    0x014a                  IC3CON = 0x14a
                    0x014a                  _IC3CON = 0x14a
                    0x014a                  _IC3CONbits = 0x14a
                    0x014c                  IC4BUF = 0x14c
                    0x014c                  _IC4BUF = 0x14c
                    0x014e                  IC4CON = 0x14e
                    0x014e                  _IC4CON = 0x14e
                    0x014e                  _IC4CONbits = 0x14e
                    0x0150                  IC5BUF = 0x150
                    0x0150                  _IC5BUF = 0x150
                    0x0152                  IC5CON = 0x152
                    0x0152                  _IC5CON = 0x152
                    0x0152                  _IC5CONbits = 0x152
                    0x0154                  IC6BUF = 0x154
                    0x0154                  _IC6BUF = 0x154
                    0x0156                  IC6CON = 0x156
                    0x0156                  _IC6CON = 0x156
                    0x0156                  _IC6CONbits = 0x156
                    0x0158                  IC7BUF = 0x158
                    0x0158                  _IC7BUF = 0x158
                    0x015a                  IC7CON = 0x15a
                    0x015a                  _IC7CON = 0x15a
                    0x015a                  _IC7CONbits = 0x15a
                    0x015c                  IC8BUF = 0x15c
                    0x015c                  _IC8BUF = 0x15c
                    0x015e                  IC8CON = 0x15e
                    0x015e                  _IC8CON = 0x15e
                    0x015e                  _IC8CONbits = 0x15e
                    0x0180                  OC1RS = 0x180
                    0x0180                  _OC1RS = 0x180
                    0x0182                  OC1R = 0x182
                    0x0182                  _OC1R = 0x182
                    0x0184                  OC1CON = 0x184
                    0x0184                  _OC1CON = 0x184
                    0x0184                  _OC1CONbits = 0x184
                    0x0186                  OC2RS = 0x186
                    0x0186                  _OC2RS = 0x186
                    0x0188                  OC2R = 0x188
                    0x0188                  _OC2R = 0x188
                    0x018a                  OC2CON = 0x18a
                    0x018a                  _OC2CON = 0x18a
                    0x018a                  _OC2CONbits = 0x18a
                    0x018c                  OC3RS = 0x18c
                    0x018c                  _OC3RS = 0x18c
                    0x018e                  OC3R = 0x18e
                    0x018e                  _OC3R = 0x18e
                    0x0190                  OC3CON = 0x190
                    0x0190                  _OC3CON = 0x190
                    0x0190                  _OC3CONbits = 0x190
                    0x0192                  OC4RS = 0x192
                    0x0192                  _OC4RS = 0x192
                    0x0194                  OC4R = 0x194
                    0x0194                  _OC4R = 0x194
                    0x0196                  OC4CON = 0x196
                    0x0196                  _OC4CON = 0x196
                    0x0196                  _OC4CONbits = 0x196
                    0x0198                  OC5RS = 0x198
                    0x0198                  _OC5RS = 0x198
                    0x019a                  OC5R = 0x19a
                    0x019a                  _OC5R = 0x19a
                    0x019c                  OC5CON = 0x19c
                    0x019c                  _OC5CON = 0x19c
                    0x019c                  _OC5CONbits = 0x19c
                    0x019e                  OC6RS = 0x19e
                    0x019e                  _OC6RS = 0x19e
                    0x01a0                  OC6R = 0x1a0
                    0x01a0                  _OC6R = 0x1a0
                    0x01a2                  OC6CON = 0x1a2
                    0x01a2                  _OC6CON = 0x1a2
                    0x01a2                  _OC6CONbits = 0x1a2
                    0x01a4                  OC7RS = 0x1a4
                    0x01a4                  _OC7RS = 0x1a4
                    0x01a6                  OC7R = 0x1a6
                    0x01a6                  _OC7R = 0x1a6
                    0x01a8                  OC7CON = 0x1a8
                    0x01a8                  _OC7CON = 0x1a8
                    0x01a8                  _OC7CONbits = 0x1a8
                    0x01aa                  OC8RS = 0x1aa
                    0x01aa                  _OC8RS = 0x1aa
                    0x01ac                  OC8R = 0x1ac
                    0x01ac                  _OC8R = 0x1ac
                    0x01ae                  OC8CON = 0x1ae
                    0x01ae                  _OC8CON = 0x1ae
                    0x01ae                  _OC8CONbits = 0x1ae
                    0x0200                  I2C1RCV = 0x200
                    0x0200                  _I2C1RCV = 0x200
                    0x0200                  I2CRCV = 0x200
                    0x0200                  _I2CRCV = 0x200
                    0x0202                  I2C1TRN = 0x202
                    0x0202                  _I2C1TRN = 0x202
                    0x0202                  I2CTRN = 0x202
                    0x0202                  _I2CTRN = 0x202
                    0x0204                  I2C1BRG = 0x204
                    0x0204                  _I2C1BRG = 0x204
                    0x0206                  I2C1CON = 0x206
                    0x0206                  _I2C1CON = 0x206
                    0x0206                  _I2C1CONbits = 0x206
                    0x0206                  I2CCON = 0x206
                    0x0206                  _I2CCON = 0x206
                    0x0206                  _I2CCONbits = 0x206
                    0x0208                  I2C1STAT = 0x208
                    0x0208                  _I2C1STAT = 0x208
                    0x0208                  _I2C1STATbits = 0x208
                    0x0208                  I2CSTAT = 0x208
                    0x0208                  _I2CSTAT = 0x208
                    0x0208                  _I2CSTATbits = 0x208
                    0x020a                  I2C1ADD = 0x20a
                    0x020a                  _I2C1ADD = 0x20a
                    0x020a                  I2CADD = 0x20a
                    0x020a                  _I2CADD = 0x20a
                    0x020c                  I2C1MSK = 0x20c
                    0x020c                  _I2C1MSK = 0x20c
                    0x0210                  I2C2RCV = 0x210
                    0x0210                  _I2C2RCV = 0x210
                    0x0212                  I2C2TRN = 0x212
                    0x0212                  _I2C2TRN = 0x212
                    0x0214                  I2C2BRG = 0x214
                    0x0214                  _I2C2BRG = 0x214
                    0x0216                  I2C2CON = 0x216
                    0x0216                  _I2C2CON = 0x216
                    0x0216                  _I2C2CONbits = 0x216
                    0x0218                  I2C2STAT = 0x218
                    0x0218                  _I2C2STAT = 0x218
                    0x0218                  _I2C2STATbits = 0x218
                    0x021a                  I2C2ADD = 0x21a
                    0x021a                  _I2C2ADD = 0x21a
                    0x021c                  I2C2MSK = 0x21c
                    0x021c                  _I2C2MSK = 0x21c
                    0x0220                  U1MODE = 0x220
                    0x0220                  _U1MODE = 0x220
                    0x0220                  _U1MODEbits = 0x220
                    0x0222                  U1STA = 0x222
                    0x0222                  _U1STA = 0x222
                    0x0222                  _U1STAbits = 0x222
                    0x0224                  U1TXREG = 0x224
                    0x0224                  _U1TXREG = 0x224
                    0x0224                  _U1TXREGbits = 0x224
                    0x0226                  U1RXREG = 0x226
                    0x0226                  _U1RXREG = 0x226
                    0x0226                  _U1RXREGbits = 0x226
                    0x0228                  U1BRG = 0x228
                    0x0228                  _U1BRG = 0x228
                    0x0230                  U2MODE = 0x230
                    0x0230                  _U2MODE = 0x230
                    0x0230                  _U2MODEbits = 0x230
                    0x0232                  U2STA = 0x232
                    0x0232                  _U2STA = 0x232
                    0x0232                  _U2STAbits = 0x232
                    0x0234                  U2TXREG = 0x234
                    0x0234                  _U2TXREG = 0x234
                    0x0234                  _U2TXREGbits = 0x234
                    0x0236                  U2RXREG = 0x236
                    0x0236                  _U2RXREG = 0x236
                    0x0236                  _U2RXREGbits = 0x236
                    0x0238                  U2BRG = 0x238
                    0x0238                  _U2BRG = 0x238
                    0x0240                  SPI1STAT = 0x240
                    0x0240                  _SPI1STAT = 0x240
                    0x0240                  _SPI1STATbits = 0x240
                    0x0242                  SPI1CON1 = 0x242
                    0x0242                  _SPI1CON1 = 0x242
                    0x0242                  _SPI1CON1bits = 0x242
                    0x0244                  SPI1CON2 = 0x244
                    0x0244                  _SPI1CON2 = 0x244
                    0x0244                  _SPI1CON2bits = 0x244
                    0x0248                  SPI1BUF = 0x248
                    0x0248                  _SPI1BUF = 0x248
                    0x0260                  SPI2STAT = 0x260
                    0x0260                  _SPI2STAT = 0x260
                    0x0260                  _SPI2STATbits = 0x260
                    0x0262                  SPI2CON1 = 0x262
                    0x0262                  _SPI2CON1 = 0x262
                    0x0262                  _SPI2CON1bits = 0x262
                    0x0264                  SPI2CON2 = 0x264
                    0x0264                  _SPI2CON2 = 0x264
                    0x0264                  _SPI2CON2bits = 0x264
                    0x0268                  SPI2BUF = 0x268
                    0x0268                  _SPI2BUF = 0x268
                    0x0280                  DCICON1 = 0x280
                    0x0280                  _DCICON1 = 0x280
                    0x0280                  _DCICON1bits = 0x280
                    0x0282                  DCICON2 = 0x282
                    0x0282                  _DCICON2 = 0x282
                    0x0282                  _DCICON2bits = 0x282
                    0x0284                  DCICON3 = 0x284
                    0x0284                  _DCICON3 = 0x284
                    0x0284                  _DCICON3bits = 0x284
                    0x0286                  DCISTAT = 0x286
                    0x0286                  _DCISTAT = 0x286
                    0x0286                  _DCISTATbits = 0x286
                    0x0288                  TSCON = 0x288
                    0x0288                  _TSCON = 0x288
                    0x0288                  _TSCONbits = 0x288
                    0x028c                  RSCON = 0x28c
                    0x028c                  _RSCON = 0x28c
                    0x028c                  _RSCONbits = 0x28c
                    0x0290                  RXBUF0 = 0x290
                    0x0290                  _RXBUF0 = 0x290
                    0x0292                  RXBUF1 = 0x292
                    0x0292                  _RXBUF1 = 0x292
                    0x0294                  RXBUF2 = 0x294
                    0x0294                  _RXBUF2 = 0x294
                    0x0296                  RXBUF3 = 0x296
                    0x0296                  _RXBUF3 = 0x296
                    0x0298                  TXBUF0 = 0x298
                    0x0298                  _TXBUF0 = 0x298
                    0x029a                  TXBUF1 = 0x29a
                    0x029a                  _TXBUF1 = 0x29a
                    0x029c                  TXBUF2 = 0x29c
                    0x029c                  _TXBUF2 = 0x29c
                    0x029e                  TXBUF3 = 0x29e
                    0x029e                  _TXBUF3 = 0x29e
                    0x02c0                  TRISA = 0x2c0
                    0x02c0                  _TRISA = 0x2c0
                    0x02c0                  _TRISAbits = 0x2c0
                    0x02c2                  PORTA = 0x2c2
                    0x02c2                  _PORTA = 0x2c2
                    0x02c2                  _PORTAbits = 0x2c2
                    0x02c4                  LATA = 0x2c4
                    0x02c4                  _LATA = 0x2c4
                    0x02c4                  _LATAbits = 0x2c4
                    0x02c6                  TRISB = 0x2c6
                    0x02c6                  _TRISB = 0x2c6
                    0x02c6                  _TRISBbits = 0x2c6
                    0x02c8                  PORTB = 0x2c8
                    0x02c8                  _PORTB = 0x2c8
                    0x02c8                  _PORTBbits = 0x2c8
                    0x02ca                  LATB = 0x2ca
                    0x02ca                  _LATB = 0x2ca
                    0x02ca                  _LATBbits = 0x2ca
                    0x02cc                  TRISC = 0x2cc
                    0x02cc                  _TRISC = 0x2cc
                    0x02cc                  _TRISCbits = 0x2cc
                    0x02ce                  PORTC = 0x2ce
                    0x02ce                  _PORTC = 0x2ce
                    0x02ce                  _PORTCbits = 0x2ce
                    0x02d0                  LATC = 0x2d0
                    0x02d0                  _LATC = 0x2d0
                    0x02d0                  _LATCbits = 0x2d0
                    0x02d2                  TRISD = 0x2d2
                    0x02d2                  _TRISD = 0x2d2
                    0x02d2                  _TRISDbits = 0x2d2
                    0x02d4                  PORTD = 0x2d4
                    0x02d4                  _PORTD = 0x2d4
                    0x02d4                  _PORTDbits = 0x2d4
                    0x02d6                  LATD = 0x2d6
                    0x02d6                  _LATD = 0x2d6
                    0x02d6                  _LATDbits = 0x2d6
                    0x02d8                  TRISE = 0x2d8
                    0x02d8                  _TRISE = 0x2d8
                    0x02d8                  _TRISEbits = 0x2d8
                    0x02da                  PORTE = 0x2da
                    0x02da                  _PORTE = 0x2da
                    0x02da                  _PORTEbits = 0x2da
                    0x02dc                  LATE = 0x2dc
                    0x02dc                  _LATE = 0x2dc
                    0x02dc                  _LATEbits = 0x2dc
                    0x02de                  TRISF = 0x2de
                    0x02de                  _TRISF = 0x2de
                    0x02de                  _TRISFbits = 0x2de
                    0x02e0                  PORTF = 0x2e0
                    0x02e0                  _PORTF = 0x2e0
                    0x02e0                  _PORTFbits = 0x2e0
                    0x02e2                  LATF = 0x2e2
                    0x02e2                  _LATF = 0x2e2
                    0x02e2                  _LATFbits = 0x2e2
                    0x02e4                  TRISG = 0x2e4
                    0x02e4                  _TRISG = 0x2e4
                    0x02e4                  _TRISGbits = 0x2e4
                    0x02e6                  PORTG = 0x2e6
                    0x02e6                  _PORTG = 0x2e6
                    0x02e6                  _PORTGbits = 0x2e6
                    0x02e8                  LATG = 0x2e8
                    0x02e8                  _LATG = 0x2e8
                    0x02e8                  _LATGbits = 0x2e8
                    0x0300                  ADC1BUF0 = 0x300
                    0x0300                  _ADC1BUF0 = 0x300
                    0x0300                  ADCBUF0 = 0x300
                    0x0300                  _ADCBUF0 = 0x300
                    0x0320                  AD1CON1 = 0x320
                    0x0320                  _AD1CON1 = 0x320
                    0x0320                  _AD1CON1bits = 0x320
                    0x0322                  AD1CON2 = 0x322
                    0x0322                  _AD1CON2 = 0x322
                    0x0322                  _AD1CON2bits = 0x322
                    0x0324                  AD1CON3 = 0x324
                    0x0324                  _AD1CON3 = 0x324
                    0x0324                  _AD1CON3bits = 0x324
                    0x0326                  AD1CHS123 = 0x326
                    0x0326                  _AD1CHS123 = 0x326
                    0x0326                  _AD1CHS123bits = 0x326
                    0x0328                  AD1CHS0 = 0x328
                    0x0328                  _AD1CHS0 = 0x328
                    0x0328                  _AD1CHS0bits = 0x328
                    0x032a                  AD1PCFGH = 0x32a
                    0x032a                  _AD1PCFGH = 0x32a
                    0x032a                  _AD1PCFGHbits = 0x32a
                    0x032c                  AD1PCFGL = 0x32c
                    0x032c                  _AD1PCFGL = 0x32c
                    0x032c                  _AD1PCFGLbits = 0x32c
                    0x032c                  ADPCFG = 0x32c
                    0x032c                  _ADPCFG = 0x32c
                    0x032c                  _ADPCFGbits = 0x32c
                    0x032e                  AD1CSSH = 0x32e
                    0x032e                  _AD1CSSH = 0x32e
                    0x032e                  _AD1CSSHbits = 0x32e
                    0x0330                  AD1CSSL = 0x330
                    0x0330                  _AD1CSSL = 0x330
                    0x0330                  _AD1CSSLbits = 0x330
                    0x0332                  AD1CON4 = 0x332
                    0x0332                  _AD1CON4 = 0x332
                    0x0332                  _AD1CON4bits = 0x332
                    0x0340                  ADC2BUF0 = 0x340
                    0x0340                  _ADC2BUF0 = 0x340
                    0x0360                  AD2CON1 = 0x360
                    0x0360                  _AD2CON1 = 0x360
                    0x0360                  _AD2CON1bits = 0x360
                    0x0362                  AD2CON2 = 0x362
                    0x0362                  _AD2CON2 = 0x362
                    0x0362                  _AD2CON2bits = 0x362
                    0x0364                  AD2CON3 = 0x364
                    0x0364                  _AD2CON3 = 0x364
                    0x0364                  _AD2CON3bits = 0x364
                    0x0366                  AD2CHS123 = 0x366
                    0x0366                  _AD2CHS123 = 0x366
                    0x0366                  _AD2CHS123bits = 0x366
                    0x0368                  AD2CHS0 = 0x368
                    0x0368                  _AD2CHS0 = 0x368
                    0x0368                  _AD2CHS0bits = 0x368
                    0x036c                  AD2PCFGL = 0x36c
                    0x036c                  _AD2PCFGL = 0x36c
                    0x036c                  _AD2PCFGLbits = 0x36c
                    0x0370                  AD2CSSL = 0x370
                    0x0370                  _AD2CSSL = 0x370
                    0x0370                  _AD2CSSLbits = 0x370
                    0x0372                  AD2CON4 = 0x372
                    0x0372                  _AD2CON4 = 0x372
                    0x0372                  _AD2CON4bits = 0x372
                    0x0380                  DMA0CON = 0x380
                    0x0380                  _DMA0CON = 0x380
                    0x0380                  _DMA0CONbits = 0x380
                    0x0382                  DMA0REQ = 0x382
                    0x0382                  _DMA0REQ = 0x382
                    0x0382                  _DMA0REQbits = 0x382
                    0x0384                  DMA0STA = 0x384
                    0x0384                  _DMA0STA = 0x384
                    0x0386                  DMA0STB = 0x386
                    0x0386                  _DMA0STB = 0x386
                    0x0388                  DMA0PAD = 0x388
                    0x0388                  _DMA0PAD = 0x388
                    0x038a                  DMA0CNT = 0x38a
                    0x038a                  _DMA0CNT = 0x38a
                    0x038c                  DMA1CON = 0x38c
                    0x038c                  _DMA1CON = 0x38c
                    0x038c                  _DMA1CONbits = 0x38c
                    0x038e                  DMA1REQ = 0x38e
                    0x038e                  _DMA1REQ = 0x38e
                    0x038e                  _DMA1REQbits = 0x38e
                    0x0390                  DMA1STA = 0x390
                    0x0390                  _DMA1STA = 0x390
                    0x0392                  DMA1STB = 0x392
                    0x0392                  _DMA1STB = 0x392
                    0x0394                  DMA1PAD = 0x394
                    0x0394                  _DMA1PAD = 0x394
                    0x0396                  DMA1CNT = 0x396
                    0x0396                  _DMA1CNT = 0x396
                    0x0398                  DMA2CON = 0x398
                    0x0398                  _DMA2CON = 0x398
                    0x0398                  _DMA2CONbits = 0x398
                    0x039a                  DMA2REQ = 0x39a
                    0x039a                  _DMA2REQ = 0x39a
                    0x039a                  _DMA2REQbits = 0x39a
                    0x039c                  DMA2STA = 0x39c
                    0x039c                  _DMA2STA = 0x39c
                    0x039e                  DMA2STB = 0x39e
                    0x039e                  _DMA2STB = 0x39e
                    0x03a0                  DMA2PAD = 0x3a0
                    0x03a0                  _DMA2PAD = 0x3a0
                    0x03a2                  DMA2CNT = 0x3a2
                    0x03a2                  _DMA2CNT = 0x3a2
                    0x03a4                  DMA3CON = 0x3a4
                    0x03a4                  _DMA3CON = 0x3a4
                    0x03a4                  _DMA3CONbits = 0x3a4
                    0x03a6                  DMA3REQ = 0x3a6
                    0x03a6                  _DMA3REQ = 0x3a6
                    0x03a6                  _DMA3REQbits = 0x3a6
                    0x03a8                  DMA3STA = 0x3a8
                    0x03a8                  _DMA3STA = 0x3a8
                    0x03aa                  DMA3STB = 0x3aa
                    0x03aa                  _DMA3STB = 0x3aa
                    0x03ac                  DMA3PAD = 0x3ac
                    0x03ac                  _DMA3PAD = 0x3ac
                    0x03ae                  DMA3CNT = 0x3ae
                    0x03ae                  _DMA3CNT = 0x3ae
                    0x03b0                  DMA4CON = 0x3b0
                    0x03b0                  _DMA4CON = 0x3b0
                    0x03b0                  _DMA4CONbits = 0x3b0
                    0x03b2                  DMA4REQ = 0x3b2
                    0x03b2                  _DMA4REQ = 0x3b2
                    0x03b2                  _DMA4REQbits = 0x3b2
                    0x03b4                  DMA4STA = 0x3b4
                    0x03b4                  _DMA4STA = 0x3b4
                    0x03b6                  DMA4STB = 0x3b6
                    0x03b6                  _DMA4STB = 0x3b6
                    0x03b8                  DMA4PAD = 0x3b8
                    0x03b8                  _DMA4PAD = 0x3b8
                    0x03ba                  DMA4CNT = 0x3ba
                    0x03ba                  _DMA4CNT = 0x3ba
                    0x03bc                  DMA5CON = 0x3bc
                    0x03bc                  _DMA5CON = 0x3bc
                    0x03bc                  _DMA5CONbits = 0x3bc
                    0x03be                  DMA5REQ = 0x3be
                    0x03be                  _DMA5REQ = 0x3be
                    0x03be                  _DMA5REQbits = 0x3be
                    0x03c0                  DMA5STA = 0x3c0
                    0x03c0                  _DMA5STA = 0x3c0
                    0x03c2                  DMA5STB = 0x3c2
                    0x03c2                  _DMA5STB = 0x3c2
                    0x03c4                  DMA5PAD = 0x3c4
                    0x03c4                  _DMA5PAD = 0x3c4
                    0x03c6                  DMA5CNT = 0x3c6
                    0x03c6                  _DMA5CNT = 0x3c6
                    0x03c8                  DMA6CON = 0x3c8
                    0x03c8                  _DMA6CON = 0x3c8
                    0x03c8                  _DMA6CONbits = 0x3c8
                    0x03ca                  DMA6REQ = 0x3ca
                    0x03ca                  _DMA6REQ = 0x3ca
                    0x03ca                  _DMA6REQbits = 0x3ca
                    0x03cc                  DMA6STA = 0x3cc
                    0x03cc                  _DMA6STA = 0x3cc
                    0x03ce                  DMA6STB = 0x3ce
                    0x03ce                  _DMA6STB = 0x3ce
                    0x03d0                  DMA6PAD = 0x3d0
                    0x03d0                  _DMA6PAD = 0x3d0
                    0x03d2                  DMA6CNT = 0x3d2
                    0x03d2                  _DMA6CNT = 0x3d2
                    0x03d4                  DMA7CON = 0x3d4
                    0x03d4                  _DMA7CON = 0x3d4
                    0x03d4                  _DMA7CONbits = 0x3d4
                    0x03d6                  DMA7REQ = 0x3d6
                    0x03d6                  _DMA7REQ = 0x3d6
                    0x03d6                  _DMA7REQbits = 0x3d6
                    0x03d8                  DMA7STA = 0x3d8
                    0x03d8                  _DMA7STA = 0x3d8
                    0x03da                  DMA7STB = 0x3da
                    0x03da                  _DMA7STB = 0x3da
                    0x03dc                  DMA7PAD = 0x3dc
                    0x03dc                  _DMA7PAD = 0x3dc
                    0x03de                  DMA7CNT = 0x3de
                    0x03de                  _DMA7CNT = 0x3de
                    0x03e0                  DMACS0 = 0x3e0
                    0x03e0                  _DMACS0 = 0x3e0
                    0x03e0                  _DMACS0bits = 0x3e0
                    0x03e2                  DMACS1 = 0x3e2
                    0x03e2                  _DMACS1 = 0x3e2
                    0x03e2                  _DMACS1bits = 0x3e2
                    0x03e4                  DSADR = 0x3e4
                    0x03e4                  _DSADR = 0x3e4
                    0x0400                  C1CTRL1 = 0x400
                    0x0400                  _C1CTRL1 = 0x400
                    0x0400                  _C1CTRL1bits = 0x400
                    0x0402                  C1CTRL2 = 0x402
                    0x0402                  _C1CTRL2 = 0x402
                    0x0402                  _C1CTRL2bits = 0x402
                    0x0404                  C1VEC = 0x404
                    0x0404                  _C1VEC = 0x404
                    0x0404                  _C1VECbits = 0x404
                    0x0406                  C1FCTRL = 0x406
                    0x0406                  _C1FCTRL = 0x406
                    0x0406                  _C1FCTRLbits = 0x406
                    0x0408                  C1FIFO = 0x408
                    0x0408                  _C1FIFO = 0x408
                    0x0408                  _C1FIFObits = 0x408
                    0x040a                  C1INTF = 0x40a
                    0x040a                  _C1INTF = 0x40a
                    0x040a                  _C1INTFbits = 0x40a
                    0x040c                  C1INTE = 0x40c
                    0x040c                  _C1INTE = 0x40c
                    0x040c                  _C1INTEbits = 0x40c
                    0x040e                  C1EC = 0x40e
                    0x040e                  _C1EC = 0x40e
                    0x040e                  _C1ECbits = 0x40e
                    0x040e                  C1RERRCNT = 0x40e
                    0x040e                  _C1RERRCNT = 0x40e
                    0x040f                  C1TERRCNT = 0x40f
                    0x040f                  _C1TERRCNT = 0x40f
                    0x0410                  C1CFG1 = 0x410
                    0x0410                  _C1CFG1 = 0x410
                    0x0410                  _C1CFG1bits = 0x410
                    0x0412                  C1CFG2 = 0x412
                    0x0412                  _C1CFG2 = 0x412
                    0x0412                  _C1CFG2bits = 0x412
                    0x0414                  C1FEN1 = 0x414
                    0x0414                  _C1FEN1 = 0x414
                    0x0414                  _C1FEN1bits = 0x414
                    0x0418                  C1FMSKSEL1 = 0x418
                    0x0418                  _C1FMSKSEL1 = 0x418
                    0x0418                  _C1FMSKSEL1bits = 0x418
                    0x041a                  C1FMSKSEL2 = 0x41a
                    0x041a                  _C1FMSKSEL2 = 0x41a
                    0x041a                  _C1FMSKSEL2bits = 0x41a
                    0x0420                  C1BUFPNT1 = 0x420
                    0x0420                  _C1BUFPNT1 = 0x420
                    0x0420                  _C1BUFPNT1bits = 0x420
                    0x0420                  C1RXFUL1 = 0x420
                    0x0420                  _C1RXFUL1 = 0x420
                    0x0420                  _C1RXFUL1bits = 0x420
                    0x0422                  C1BUFPNT2 = 0x422
                    0x0422                  _C1BUFPNT2 = 0x422
                    0x0422                  _C1BUFPNT2bits = 0x422
                    0x0422                  C1RXFUL2 = 0x422
                    0x0422                  _C1RXFUL2 = 0x422
                    0x0422                  _C1RXFUL2bits = 0x422
                    0x0424                  C1BUFPNT3 = 0x424
                    0x0424                  _C1BUFPNT3 = 0x424
                    0x0424                  _C1BUFPNT3bits = 0x424
                    0x0426                  C1BUFPNT4 = 0x426
                    0x0426                  _C1BUFPNT4 = 0x426
                    0x0426                  _C1BUFPNT4bits = 0x426
                    0x0428                  C1RXOVF1 = 0x428
                    0x0428                  _C1RXOVF1 = 0x428
                    0x0428                  _C1RXOVF1bits = 0x428
                    0x042a                  C1RXOVF2 = 0x42a
                    0x042a                  _C1RXOVF2 = 0x42a
                    0x042a                  _C1RXOVF2bits = 0x42a
                    0x0430                  C1RXM0SID = 0x430
                    0x0430                  _C1RXM0SID = 0x430
                    0x0430                  _C1RXM0SIDbits = 0x430
                    0x0430                  C1TR01CON = 0x430
                    0x0430                  _C1TR01CON = 0x430
                    0x0430                  _C1TR01CONbits = 0x430
                    0x0432                  C1RXM0EID = 0x432
                    0x0432                  _C1RXM0EID = 0x432
                    0x0432                  _C1RXM0EIDbits = 0x432
                    0x0432                  C1TR23CON = 0x432
                    0x0432                  _C1TR23CON = 0x432
                    0x0432                  _C1TR23CONbits = 0x432
                    0x0434                  C1RXM1SID = 0x434
                    0x0434                  _C1RXM1SID = 0x434
                    0x0434                  _C1RXM1SIDbits = 0x434
                    0x0434                  C1TR45CON = 0x434
                    0x0434                  _C1TR45CON = 0x434
                    0x0434                  _C1TR45CONbits = 0x434
                    0x0436                  C1RXM1EID = 0x436
                    0x0436                  _C1RXM1EID = 0x436
                    0x0436                  _C1RXM1EIDbits = 0x436
                    0x0436                  C1TR67CON = 0x436
                    0x0436                  _C1TR67CON = 0x436
                    0x0436                  _C1TR67CONbits = 0x436
                    0x0438                  C1RXM2SID = 0x438
                    0x0438                  _C1RXM2SID = 0x438
                    0x0438                  _C1RXM2SIDbits = 0x438
                    0x043a                  C1RXM2EID = 0x43a
                    0x043a                  _C1RXM2EID = 0x43a
                    0x043a                  _C1RXM2EIDbits = 0x43a
                    0x0440                  C1RXD = 0x440
                    0x0440                  _C1RXD = 0x440
                    0x0440                  C1RXF0SID = 0x440
                    0x0440                  _C1RXF0SID = 0x440
                    0x0440                  _C1RXF0SIDbits = 0x440
                    0x0442                  C1RXF0EID = 0x442
                    0x0442                  _C1RXF0EID = 0x442
                    0x0442                  _C1RXF0EIDbits = 0x442
                    0x0442                  C1TXD = 0x442
                    0x0442                  _C1TXD = 0x442
                    0x0444                  C1RXF1SID = 0x444
                    0x0444                  _C1RXF1SID = 0x444
                    0x0444                  _C1RXF1SIDbits = 0x444
                    0x0446                  C1RXF1EID = 0x446
                    0x0446                  _C1RXF1EID = 0x446
                    0x0446                  _C1RXF1EIDbits = 0x446
                    0x0448                  C1RXF2SID = 0x448
                    0x0448                  _C1RXF2SID = 0x448
                    0x0448                  _C1RXF2SIDbits = 0x448
                    0x044a                  C1RXF2EID = 0x44a
                    0x044a                  _C1RXF2EID = 0x44a
                    0x044a                  _C1RXF2EIDbits = 0x44a
                    0x044c                  C1RXF3SID = 0x44c
                    0x044c                  _C1RXF3SID = 0x44c
                    0x044c                  _C1RXF3SIDbits = 0x44c
                    0x044e                  C1RXF3EID = 0x44e
                    0x044e                  _C1RXF3EID = 0x44e
                    0x044e                  _C1RXF3EIDbits = 0x44e
                    0x0450                  C1RXF4SID = 0x450
                    0x0450                  _C1RXF4SID = 0x450
                    0x0450                  _C1RXF4SIDbits = 0x450
                    0x0452                  C1RXF4EID = 0x452
                    0x0452                  _C1RXF4EID = 0x452
                    0x0452                  _C1RXF4EIDbits = 0x452
                    0x0454                  C1RXF5SID = 0x454
                    0x0454                  _C1RXF5SID = 0x454
                    0x0454                  _C1RXF5SIDbits = 0x454
                    0x0456                  C1RXF5EID = 0x456
                    0x0456                  _C1RXF5EID = 0x456
                    0x0456                  _C1RXF5EIDbits = 0x456
                    0x0458                  C1RXF6SID = 0x458
                    0x0458                  _C1RXF6SID = 0x458
                    0x0458                  _C1RXF6SIDbits = 0x458
                    0x045a                  C1RXF6EID = 0x45a
                    0x045a                  _C1RXF6EID = 0x45a
                    0x045a                  _C1RXF6EIDbits = 0x45a
                    0x045c                  C1RXF7SID = 0x45c
                    0x045c                  _C1RXF7SID = 0x45c
                    0x045c                  _C1RXF7SIDbits = 0x45c
                    0x045e                  C1RXF7EID = 0x45e
                    0x045e                  _C1RXF7EID = 0x45e
                    0x045e                  _C1RXF7EIDbits = 0x45e
                    0x0460                  C1RXF8SID = 0x460
                    0x0460                  _C1RXF8SID = 0x460
                    0x0460                  _C1RXF8SIDbits = 0x460
                    0x0462                  C1RXF8EID = 0x462
                    0x0462                  _C1RXF8EID = 0x462
                    0x0462                  _C1RXF8EIDbits = 0x462
                    0x0464                  C1RXF9SID = 0x464
                    0x0464                  _C1RXF9SID = 0x464
                    0x0464                  _C1RXF9SIDbits = 0x464
                    0x0466                  C1RXF9EID = 0x466
                    0x0466                  _C1RXF9EID = 0x466
                    0x0466                  _C1RXF9EIDbits = 0x466
                    0x0468                  C1RXF10SID = 0x468
                    0x0468                  _C1RXF10SID = 0x468
                    0x0468                  _C1RXF10SIDbits = 0x468
                    0x046a                  C1RXF10EID = 0x46a
                    0x046a                  _C1RXF10EID = 0x46a
                    0x046a                  _C1RXF10EIDbits = 0x46a
                    0x046c                  C1RXF11SID = 0x46c
                    0x046c                  _C1RXF11SID = 0x46c
                    0x046c                  _C1RXF11SIDbits = 0x46c
                    0x046e                  C1RXF11EID = 0x46e
                    0x046e                  _C1RXF11EID = 0x46e
                    0x046e                  _C1RXF11EIDbits = 0x46e
                    0x0470                  C1RXF12SID = 0x470
                    0x0470                  _C1RXF12SID = 0x470
                    0x0470                  _C1RXF12SIDbits = 0x470
                    0x0472                  C1RXF12EID = 0x472
                    0x0472                  _C1RXF12EID = 0x472
                    0x0472                  _C1RXF12EIDbits = 0x472
                    0x0474                  C1RXF13SID = 0x474
                    0x0474                  _C1RXF13SID = 0x474
                    0x0474                  _C1RXF13SIDbits = 0x474
                    0x0476                  C1RXF13EID = 0x476
                    0x0476                  _C1RXF13EID = 0x476
                    0x0476                  _C1RXF13EIDbits = 0x476
                    0x0478                  C1RXF14SID = 0x478
                    0x0478                  _C1RXF14SID = 0x478
                    0x0478                  _C1RXF14SIDbits = 0x478
                    0x047a                  C1RXF14EID = 0x47a
                    0x047a                  _C1RXF14EID = 0x47a
                    0x047a                  _C1RXF14EIDbits = 0x47a
                    0x047c                  C1RXF15SID = 0x47c
                    0x047c                  _C1RXF15SID = 0x47c
                    0x047c                  _C1RXF15SIDbits = 0x47c
                    0x047e                  C1RXF15EID = 0x47e
                    0x047e                  _C1RXF15EID = 0x47e
                    0x047e                  _C1RXF15EIDbits = 0x47e
                    0x0500                  C2CTRL1 = 0x500
                    0x0500                  _C2CTRL1 = 0x500
                    0x0500                  _C2CTRL1bits = 0x500
                    0x0502                  C2CTRL2 = 0x502
                    0x0502                  _C2CTRL2 = 0x502
                    0x0502                  _C2CTRL2bits = 0x502
                    0x0504                  C2VEC = 0x504
                    0x0504                  _C2VEC = 0x504
                    0x0504                  _C2VECbits = 0x504
                    0x0506                  C2FCTRL = 0x506
                    0x0506                  _C2FCTRL = 0x506
                    0x0506                  _C2FCTRLbits = 0x506
                    0x0508                  C2FIFO = 0x508
                    0x0508                  _C2FIFO = 0x508
                    0x0508                  _C2FIFObits = 0x508
                    0x050a                  C2INTF = 0x50a
                    0x050a                  _C2INTF = 0x50a
                    0x050a                  _C2INTFbits = 0x50a
                    0x050c                  C2INTE = 0x50c
                    0x050c                  _C2INTE = 0x50c
                    0x050c                  _C2INTEbits = 0x50c
                    0x050e                  C2EC = 0x50e
                    0x050e                  _C2EC = 0x50e
                    0x050e                  _C2ECbits = 0x50e
                    0x050e                  C2RERRCNT = 0x50e
                    0x050e                  _C2RERRCNT = 0x50e
                    0x050f                  C2TERRCNT = 0x50f
                    0x050f                  _C2TERRCNT = 0x50f
                    0x0510                  C2CFG1 = 0x510
                    0x0510                  _C2CFG1 = 0x510
                    0x0510                  _C2CFG1bits = 0x510
                    0x0512                  C2CFG2 = 0x512
                    0x0512                  _C2CFG2 = 0x512
                    0x0512                  _C2CFG2bits = 0x512
                    0x0514                  C2FEN1 = 0x514
                    0x0514                  _C2FEN1 = 0x514
                    0x0514                  _C2FEN1bits = 0x514
                    0x0518                  C2FMSKSEL1 = 0x518
                    0x0518                  _C2FMSKSEL1 = 0x518
                    0x0518                  _C2FMSKSEL1bits = 0x518
                    0x051a                  C2FMSKSEL2 = 0x51a
                    0x051a                  _C2FMSKSEL2 = 0x51a
                    0x051a                  _C2FMSKSEL2bits = 0x51a
                    0x0520                  C2BUFPNT1 = 0x520
                    0x0520                  _C2BUFPNT1 = 0x520
                    0x0520                  _C2BUFPNT1bits = 0x520
                    0x0520                  C2RXFUL1 = 0x520
                    0x0520                  _C2RXFUL1 = 0x520
                    0x0520                  _C2RXFUL1bits = 0x520
                    0x0522                  C2BUFPNT2 = 0x522
                    0x0522                  _C2BUFPNT2 = 0x522
                    0x0522                  _C2BUFPNT2bits = 0x522
                    0x0522                  C2RXFUL2 = 0x522
                    0x0522                  _C2RXFUL2 = 0x522
                    0x0522                  _C2RXFUL2bits = 0x522
                    0x0524                  C2BUFPNT3 = 0x524
                    0x0524                  _C2BUFPNT3 = 0x524
                    0x0524                  _C2BUFPNT3bits = 0x524
                    0x0526                  C2BUFPNT4 = 0x526
                    0x0526                  _C2BUFPNT4 = 0x526
                    0x0526                  _C2BUFPNT4bits = 0x526
                    0x0528                  C2RXOVF1 = 0x528
                    0x0528                  _C2RXOVF1 = 0x528
                    0x0528                  _C2RXOVF1bits = 0x528
                    0x052a                  C2RXOVF2 = 0x52a
                    0x052a                  _C2RXOVF2 = 0x52a
                    0x052a                  _C2RXOVF2bits = 0x52a
                    0x0530                  C2RXM0SID = 0x530
                    0x0530                  _C2RXM0SID = 0x530
                    0x0530                  _C2RXM0SIDbits = 0x530
                    0x0530                  C2TR01CON = 0x530
                    0x0530                  _C2TR01CON = 0x530
                    0x0530                  _C2TR01CONbits = 0x530
                    0x0532                  C2RXM0EID = 0x532
                    0x0532                  _C2RXM0EID = 0x532
                    0x0532                  _C2RXM0EIDbits = 0x532
                    0x0532                  C2TR23CON = 0x532
                    0x0532                  _C2TR23CON = 0x532
                    0x0532                  _C2TR23CONbits = 0x532
                    0x0534                  C2RXM1SID = 0x534
                    0x0534                  _C2RXM1SID = 0x534
                    0x0534                  _C2RXM1SIDbits = 0x534
                    0x0534                  C2TR45CON = 0x534
                    0x0534                  _C2TR45CON = 0x534
                    0x0534                  _C2TR45CONbits = 0x534
                    0x0536                  C2RXM1EID = 0x536
                    0x0536                  _C2RXM1EID = 0x536
                    0x0536                  _C2RXM1EIDbits = 0x536
                    0x0536                  C2TR67CON = 0x536
                    0x0536                  _C2TR67CON = 0x536
                    0x0536                  _C2TR67CONbits = 0x536
                    0x0538                  C2RXM2SID = 0x538
                    0x0538                  _C2RXM2SID = 0x538
                    0x0538                  _C2RXM2SIDbits = 0x538
                    0x053a                  C2RXM2EID = 0x53a
                    0x053a                  _C2RXM2EID = 0x53a
                    0x053a                  _C2RXM2EIDbits = 0x53a
                    0x0540                  C2RXD = 0x540
                    0x0540                  _C2RXD = 0x540
                    0x0540                  C2RXF0SID = 0x540
                    0x0540                  _C2RXF0SID = 0x540
                    0x0540                  _C2RXF0SIDbits = 0x540
                    0x0542                  C2RXF0EID = 0x542
                    0x0542                  _C2RXF0EID = 0x542
                    0x0542                  _C2RXF0EIDbits = 0x542
                    0x0542                  C2TXD = 0x542
                    0x0542                  _C2TXD = 0x542
                    0x0544                  C2RXF1SID = 0x544
                    0x0544                  _C2RXF1SID = 0x544
                    0x0544                  _C2RXF1SIDbits = 0x544
                    0x0546                  C2RXF1EID = 0x546
                    0x0546                  _C2RXF1EID = 0x546
                    0x0546                  _C2RXF1EIDbits = 0x546
                    0x0548                  C2RXF2SID = 0x548
                    0x0548                  _C2RXF2SID = 0x548
                    0x0548                  _C2RXF2SIDbits = 0x548
                    0x054a                  C2RXF2EID = 0x54a
                    0x054a                  _C2RXF2EID = 0x54a
                    0x054a                  _C2RXF2EIDbits = 0x54a
                    0x054c                  C2RXF3SID = 0x54c
                    0x054c                  _C2RXF3SID = 0x54c
                    0x054c                  _C2RXF3SIDbits = 0x54c
                    0x054e                  C2RXF3EID = 0x54e
                    0x054e                  _C2RXF3EID = 0x54e
                    0x054e                  _C2RXF3EIDbits = 0x54e
                    0x0550                  C2RXF4SID = 0x550
                    0x0550                  _C2RXF4SID = 0x550
                    0x0550                  _C2RXF4SIDbits = 0x550
                    0x0552                  C2RXF4EID = 0x552
                    0x0552                  _C2RXF4EID = 0x552
                    0x0552                  _C2RXF4EIDbits = 0x552
                    0x0554                  C2RXF5SID = 0x554
                    0x0554                  _C2RXF5SID = 0x554
                    0x0554                  _C2RXF5SIDbits = 0x554
                    0x0556                  C2RXF5EID = 0x556
                    0x0556                  _C2RXF5EID = 0x556
                    0x0556                  _C2RXF5EIDbits = 0x556
                    0x0558                  C2RXF6SID = 0x558
                    0x0558                  _C2RXF6SID = 0x558
                    0x0558                  _C2RXF6SIDbits = 0x558
                    0x055a                  C2RXF6EID = 0x55a
                    0x055a                  _C2RXF6EID = 0x55a
                    0x055a                  _C2RXF6EIDbits = 0x55a
                    0x055c                  C2RXF7SID = 0x55c
                    0x055c                  _C2RXF7SID = 0x55c
                    0x055c                  _C2RXF7SIDbits = 0x55c
                    0x055e                  C2RXF7EID = 0x55e
                    0x055e                  _C2RXF7EID = 0x55e
                    0x055e                  _C2RXF7EIDbits = 0x55e
                    0x0560                  C2RXF8SID = 0x560
                    0x0560                  _C2RXF8SID = 0x560
                    0x0560                  _C2RXF8SIDbits = 0x560
                    0x0562                  C2RXF8EID = 0x562
                    0x0562                  _C2RXF8EID = 0x562
                    0x0562                  _C2RXF8EIDbits = 0x562
                    0x0564                  C2RXF9SID = 0x564
                    0x0564                  _C2RXF9SID = 0x564
                    0x0564                  _C2RXF9SIDbits = 0x564
                    0x0566                  C2RXF9EID = 0x566
                    0x0566                  _C2RXF9EID = 0x566
                    0x0566                  _C2RXF9EIDbits = 0x566
                    0x0568                  C2RXF10SID = 0x568
                    0x0568                  _C2RXF10SID = 0x568
                    0x0568                  _C2RXF10SIDbits = 0x568
                    0x056a                  C2RXF10EID = 0x56a
                    0x056a                  _C2RXF10EID = 0x56a
                    0x056a                  _C2RXF10EIDbits = 0x56a
                    0x056c                  C2RXF11SID = 0x56c
                    0x056c                  _C2RXF11SID = 0x56c
                    0x056c                  _C2RXF11SIDbits = 0x56c
                    0x056e                  C2RXF11EID = 0x56e
                    0x056e                  _C2RXF11EID = 0x56e
                    0x056e                  _C2RXF11EIDbits = 0x56e
                    0x0570                  C2RXF12SID = 0x570
                    0x0570                  _C2RXF12SID = 0x570
                    0x0570                  _C2RXF12SIDbits = 0x570
                    0x0572                  C2RXF12EID = 0x572
                    0x0572                  _C2RXF12EID = 0x572
                    0x0572                  _C2RXF12EIDbits = 0x572
                    0x0574                  C2RXF13SID = 0x574
                    0x0574                  _C2RXF13SID = 0x574
                    0x0574                  _C2RXF13SIDbits = 0x574
                    0x0576                  C2RXF13EID = 0x576
                    0x0576                  _C2RXF13EID = 0x576
                    0x0576                  _C2RXF13EIDbits = 0x576
                    0x0578                  C2RXF14SID = 0x578
                    0x0578                  _C2RXF14SID = 0x578
                    0x0578                  _C2RXF14SIDbits = 0x578
                    0x057a                  C2RXF14EID = 0x57a
                    0x057a                  _C2RXF14EID = 0x57a
                    0x057a                  _C2RXF14EIDbits = 0x57a
                    0x057c                  C2RXF15SID = 0x57c
                    0x057c                  _C2RXF15SID = 0x57c
                    0x057c                  _C2RXF15SIDbits = 0x57c
                    0x057e                  C2RXF15EID = 0x57e
                    0x057e                  _C2RXF15EID = 0x57e
                    0x057e                  _C2RXF15EIDbits = 0x57e
                    0x06c0                  ODCA = 0x6c0
                    0x06c0                  _ODCA = 0x6c0
                    0x06c0                  _ODCAbits = 0x6c0
                    0x06d2                  ODCD = 0x6d2
                    0x06d2                  _ODCD = 0x6d2
                    0x06d2                  _ODCDbits = 0x6d2
                    0x06de                  ODCF = 0x6de
                    0x06de                  _ODCF = 0x6de
                    0x06de                  _ODCFbits = 0x6de
                    0x06e4                  ODCG = 0x6e4
                    0x06e4                  _ODCG = 0x6e4
                    0x06e4                  _ODCGbits = 0x6e4
                    0x0740                  RCON = 0x740
                    0x0740                  _RCON = 0x740
                    0x0740                  _RCONbits = 0x740
                    0x0742                  OSCCON = 0x742
                    0x0742                  _OSCCON = 0x742
                    0x0742                  _OSCCONbits = 0x742
                    0x0742                  OSCCONL = 0x742
                    0x0742                  _OSCCONL = 0x742
                    0x0743                  OSCCONH = 0x743
                    0x0743                  _OSCCONH = 0x743
                    0x0744                  CLKDIV = 0x744
                    0x0744                  _CLKDIV = 0x744
                    0x0744                  _CLKDIVbits = 0x744
                    0x0746                  PLLFBD = 0x746
                    0x0746                  _PLLFBD = 0x746
                    0x0746                  _PLLFBDbits = 0x746
                    0x0748                  OSCTUN = 0x748
                    0x0748                  _OSCTUN = 0x748
                    0x0748                  _OSCTUNbits = 0x748
                    0x0750                  BSRAM = 0x750
                    0x0750                  _BSRAM = 0x750
                    0x0750                  _BSRAMbits = 0x750
                    0x0752                  SSRAM = 0x752
                    0x0752                  _SSRAM = 0x752
                    0x0752                  _SSRAMbits = 0x752
                    0x0760                  NVMCON = 0x760
                    0x0760                  _NVMCON = 0x760
                    0x0760                  _NVMCONbits = 0x760
                    0x0766                  NVMKEY = 0x766
                    0x0766                  _NVMKEY = 0x766
                    0x0770                  PMD1 = 0x770
                    0x0770                  _PMD1 = 0x770
                    0x0770                  _PMD1bits = 0x770
                    0x0772                  PMD2 = 0x772
                    0x0772                  _PMD2 = 0x772
                    0x0772                  _PMD2bits = 0x772
                    0x0774                  PMD3 = 0x774
                    0x0774                  _PMD3 = 0x774
                    0x0774                  _PMD3bits = 0x774
                    0x0022                  ACCA = 0x22
                    0x0022                  _ACCA = 0x22
                    0x0028                  ACCB = 0x28
                    0x0028                  _ACCB = 0x28
                    0x0440                  CAN1 = 0x440
                    0x0440                  _CAN1 = 0x440
                    0x0540                  CAN2 = 0x540
                    0x0540                  _CAN2 = 0x540
                    0x0140                  IC1 = 0x140
                    0x0140                  _IC1 = 0x140
                    0x0144                  IC2 = 0x144
                    0x0144                  _IC2 = 0x144
                    0x0148                  IC3 = 0x148
                    0x0148                  _IC3 = 0x148
                    0x014c                  IC4 = 0x14c
                    0x014c                  _IC4 = 0x14c
                    0x0150                  IC5 = 0x150
                    0x0150                  _IC5 = 0x150
                    0x0154                  IC6 = 0x154
                    0x0154                  _IC6 = 0x154
                    0x0158                  IC7 = 0x158
                    0x0158                  _IC7 = 0x158
                    0x015c                  IC8 = 0x15c
                    0x015c                  _IC8 = 0x15c
                    0x0180                  OC1 = 0x180
                    0x0180                  _OC1 = 0x180
                    0x0186                  OC2 = 0x186
                    0x0186                  _OC2 = 0x186
                    0x018c                  OC3 = 0x18c
                    0x018c                  _OC3 = 0x18c
                    0x0192                  OC4 = 0x192
                    0x0192                  _OC4 = 0x192
                    0x0198                  OC5 = 0x198
                    0x0198                  _OC5 = 0x198
                    0x019e                  OC6 = 0x19e
                    0x019e                  _OC6 = 0x19e
                    0x01a4                  OC7 = 0x1a4
                    0x01a4                  _OC7 = 0x1a4
                    0x01aa                  OC8 = 0x1aa
                    0x01aa                  _OC8 = 0x1aa
                    0x0240                  SPI1 = 0x240
                    0x0240                  _SPI1 = 0x240
                    0x0260                  SPI2 = 0x260
                    0x0260                  _SPI2 = 0x260
                    0x0220                  UART1 = 0x220
                    0x0220                  _UART1 = 0x220
                    0x0230                  UART2 = 0x230
                    0x0230                  _UART2 = 0x230
START GROUP
LOAD c:/program files (x86)/microchip/xc16/v1.31/bin/bin/../../lib\liblega-pic30-elf.a
LOAD c:/program files (x86)/microchip/xc16/v1.31/bin/bin/../../lib\libm-elf.a
LOAD c:/program files (x86)/microchip/xc16/v1.31/bin/bin/../../lib\liblega-c-elf.a
END GROUP
OUTPUT(dist/default/production/MatrixPilot-udb5.X.production.elf elf32-pic30)
LOAD FGS
LOAD jump_table
LOAD default_isr
LOAD heap
LOAD data_init

.debug_pubtypes
                  0x0005e0       0x26af
 .debug_pubtypes
                  0x0005e0         0x81 build/default/production/_ext/1077471063/estWind.o
 .debug_pubtypes
                  0x000661         0x81 build/default/production/_ext/1077471063/estYawDrift.o
 .debug_pubtypes
                  0x0006e2         0xd8 build/default/production/_ext/1077471063/gpsParseCommon.o
 .debug_pubtypes
                  0x0007ba         0x7d build/default/production/_ext/1077471063/gpsParseSTD.o
 .debug_pubtypes
                  0x000837         0x12 build/default/production/_ext/1077471063/gpsParseUBX.o
 .debug_pubtypes
                  0x000849         0x95 build/default/production/_ext/1077471063/mathlibNAV.o
 .debug_pubtypes
                  0x0008de         0xc9 build/default/production/_ext/1077471063/rmat.o
 .debug_pubtypes
                  0x0009a7         0xa2 build/default/production/_ext/1077471063/libDCM.o
 .debug_pubtypes
                  0x000a49         0xc6 build/default/production/_ext/1077471063/deadReckoning.o
 .debug_pubtypes
                  0x000b0f         0x12 build/default/production/_ext/1077471063/gpsParseMTEK.o
 .debug_pubtypes
                  0x000b21         0x12 build/default/production/_ext/1077471063/estAltitude.o
 .debug_pubtypes
                  0x000b33        0x221 build/default/production/_ext/1077454706/background.o
 .debug_pubtypes
                  0x000d54         0xac build/default/production/_ext/1077454706/libUDB.o
 .debug_pubtypes
                  0x000e00        0x231 build/default/production/_ext/1077454706/servoOut.o
 .debug_pubtypes
                  0x001031         0x12 build/default/production/_ext/1077454706/osd.o
 .debug_pubtypes
                  0x001043         0x12 build/default/production/_ext/1077454706/24LC256.o
 .debug_pubtypes
                  0x001055        0x146 build/default/production/_ext/1077454706/events.o
 .debug_pubtypes
                  0x00119b        0x13b build/default/production/_ext/1077454706/mpu6000.o
 .debug_pubtypes
                  0x0012d6        0x188 build/default/production/_ext/1077454706/spiUtils.o
 .debug_pubtypes
                  0x00145e        0x252 build/default/production/_ext/1077454706/analog2digital_udb5.o
 .debug_pubtypes
                  0x0016b0         0x12 build/default/production/_ext/1077454706/analog2digital_udb4.o
 .debug_pubtypes
                  0x0016c2         0xd0 build/default/production/_ext/1077454706/mcu.o
 .debug_pubtypes
                  0x001792         0x69 build/default/production/_ext/1077454706/eeprom_udb4.o
 .debug_pubtypes
                  0x0017fb         0x5a build/default/production/_ext/1077454706/traps.o
 .debug_pubtypes
                  0x001855         0xb7 build/default/production/_ext/1077454706/barometer.o
 .debug_pubtypes
                  0x00190c         0x12 build/default/production/_ext/1077454706/I2C1.o
 .debug_pubtypes
                  0x00191e        0x144 build/default/production/_ext/1077454706/I2C2.o
 .debug_pubtypes
                  0x001a62         0x90 build/default/production/_ext/1077454706/magnetometer.o
 .debug_pubtypes
                  0x001af2        0x300 build/default/production/_ext/1077454706/radioIn.o
 .debug_pubtypes
                  0x001df2        0x1ac build/default/production/_ext/1077454706/serialIO.o
 .debug_pubtypes
                  0x001f9e         0x92 build/default/production/_ext/1077454706/read.o
 .debug_pubtypes
                  0x002030         0x12 build/default/production/_ext/1077454706/uart.o
 .debug_pubtypes
                  0x002042         0x92 build/default/production/_ext/1077454706/write.o
 .debug_pubtypes
                  0x0020d4         0x12 build/default/production/_ext/1472/config_tests.o
 .debug_pubtypes
                  0x0020e6         0xb1 build/default/production/_ext/1472/behavior.o
 .debug_pubtypes
                  0x002197         0x4b build/default/production/_ext/1472/cameraCntrl.o
 .debug_pubtypes
                  0x0021e2         0x12 build/default/production/_ext/1472/main.o
 .debug_pubtypes
                  0x0021f4        0x10a build/default/production/_ext/1472/navigate.o
 .debug_pubtypes
                  0x0022fe         0xc8 build/default/production/_ext/1472/pitchCntrl.o
 .debug_pubtypes
                  0x0023c6         0x99 build/default/production/_ext/1472/rollCntrl.o
 .debug_pubtypes
                  0x00245f         0x81 build/default/production/_ext/1472/servoMix.o
 .debug_pubtypes
                  0x0024e0         0xe0 build/default/production/_ext/1472/states.o
 .debug_pubtypes
                  0x0025c0         0xc8 build/default/production/_ext/1472/yawCntrl.o
 .debug_pubtypes
                  0x002688         0xea build/default/production/_ext/1472/telemetry.o
 .debug_pubtypes
                  0x002772         0x4f build/default/production/_ext/1472/servoPrepare.o
 .debug_pubtypes
                  0x0027c1        0x10b build/default/production/_ext/1472/flightplan-waypoints.o
 .debug_pubtypes
                  0x0028cc         0x12 build/default/production/_ext/1472/flightplan-logo.o
 .debug_pubtypes
                  0x0028de         0x12 build/default/production/_ext/1472/mp_osd.o
 .debug_pubtypes
                  0x0028f0        0x10d build/default/production/_ext/1472/altitudeCntrl.o
 .debug_pubtypes
                  0x0029fd         0x12 build/default/production/_ext/1472/MAVLink.o
 .debug_pubtypes
                  0x002a0f         0x75 build/default/production/_ext/1472/mode_switch.o
 .debug_pubtypes
                  0x002a84         0x12 build/default/production/_ext/1472/data_services.o
 .debug_pubtypes
                  0x002a96         0x12 build/default/production/_ext/1472/data_storage.o
 .debug_pubtypes
                  0x002aa8         0x12 build/default/production/_ext/1472/nv_memory_table.o
 .debug_pubtypes
                  0x002aba         0x12 build/default/production/_ext/1472/parameter_table.o
 .debug_pubtypes
                  0x002acc         0x12 build/default/production/_ext/1472/airspeedCntrl.o
 .debug_pubtypes
                  0x002ade         0x12 build/default/production/_ext/1472/altitudeCntrlVariable.o
 .debug_pubtypes
                  0x002af0         0x49 build/default/production/_ext/1472/euler_angles.o
 .debug_pubtypes
                  0x002b39         0x12 build/default/production/_ext/1472/console.o
 .debug_pubtypes
                  0x002b4b         0x8a build/default/production/_ext/1472/sonarCntrl.o
 .debug_pubtypes
                  0x002bd5         0xba build/default/production/_ext/1472/motorCntrl.o

__c30_signature
                  0x002c8f        0x38a
 __c30_signature
                  0x002c8f          0x6 build/default/production/_ext/1077471063/estWind.o
 __c30_signature
                  0x002c95          0x6 build/default/production/_ext/1077471063/estYawDrift.o
 __c30_signature
                  0x002c9b          0x6 build/default/production/_ext/1077471063/gpsParseCommon.o
 __c30_signature
                  0x002ca1          0x6 build/default/production/_ext/1077471063/gpsParseSTD.o
 __c30_signature
                  0x002ca7          0x6 build/default/production/_ext/1077471063/gpsParseUBX.o
 __c30_signature
                  0x002cad          0x6 build/default/production/_ext/1077471063/mathlibNAV.o
 __c30_signature
                  0x002cb3          0x6 build/default/production/_ext/1077471063/rmat.o
 __c30_signature
                  0x002cb9          0x6 build/default/production/_ext/1077471063/libDCM.o
 __c30_signature
                  0x002cbf          0x6 build/default/production/_ext/1077471063/deadReckoning.o
 __c30_signature
                  0x002cc5          0x6 build/default/production/_ext/1077471063/gpsParseMTEK.o
 __c30_signature
                  0x002ccb          0x6 build/default/production/_ext/1077471063/estAltitude.o
 __c30_signature
                  0x002cd1          0x6 build/default/production/_ext/1077454706/background.o
 __c30_signature
                  0x002cd7          0x6 build/default/production/_ext/1077454706/libUDB.o
 __c30_signature
                  0x002cdd          0x6 build/default/production/_ext/1077454706/servoOut.o
 __c30_signature
                  0x002ce3          0x6 build/default/production/_ext/1077454706/osd.o
 __c30_signature
                  0x002ce9          0x6 build/default/production/_ext/1077454706/24LC256.o
 __c30_signature
                  0x002cef          0x6 build/default/production/_ext/1077454706/events.o
 __c30_signature
                  0x002cf5          0x6 build/default/production/_ext/1077454706/mpu6000.o
 __c30_signature
                  0x002cfb          0x6 build/default/production/_ext/1077454706/spiUtils.o
 __c30_signature
                  0x002d01          0x6 build/default/production/_ext/1077454706/analog2digital_udb5.o
 __c30_signature
                  0x002d07          0x6 build/default/production/_ext/1077454706/analog2digital_udb4.o
 __c30_signature
                  0x002d0d          0x6 build/default/production/_ext/1077454706/mcu.o
 __c30_signature
                  0x002d13          0x6 build/default/production/_ext/1077454706/eeprom_udb4.o
 __c30_signature
                  0x002d19          0x6 build/default/production/_ext/1077454706/traps.o
 __c30_signature
                  0x002d1f          0x6 build/default/production/_ext/1077454706/barometer.o
 __c30_signature
                  0x002d25          0x6 build/default/production/_ext/1077454706/I2C1.o
 __c30_signature
                  0x002d2b          0x6 build/default/production/_ext/1077454706/I2C2.o
 __c30_signature
                  0x002d31          0x6 build/default/production/_ext/1077454706/magnetometer.o
 __c30_signature
                  0x002d37          0x6 build/default/production/_ext/1077454706/radioIn.o
 __c30_signature
                  0x002d3d          0x6 build/default/production/_ext/1077454706/serialIO.o
 __c30_signature
                  0x002d43          0x6 build/default/production/_ext/1077454706/read.o
 __c30_signature
                  0x002d49          0x6 build/default/production/_ext/1077454706/uart.o
 __c30_signature
                  0x002d4f          0x6 build/default/production/_ext/1077454706/write.o
 __c30_signature
                  0x002d55          0x6 build/default/production/_ext/1472/config_tests.o
 __c30_signature
                  0x002d5b          0x6 build/default/production/_ext/1472/behavior.o
 __c30_signature
                  0x002d61          0x6 build/default/production/_ext/1472/cameraCntrl.o
 __c30_signature
                  0x002d67          0x6 build/default/production/_ext/1472/main.o
 __c30_signature
                  0x002d6d          0x6 build/default/production/_ext/1472/navigate.o
 __c30_signature
                  0x002d73          0x6 build/default/production/_ext/1472/pitchCntrl.o
 __c30_signature
                  0x002d79          0x6 build/default/production/_ext/1472/rollCntrl.o
 __c30_signature
                  0x002d7f          0x6 build/default/production/_ext/1472/servoMix.o
 __c30_signature
                  0x002d85          0x6 build/default/production/_ext/1472/states.o
 __c30_signature
                  0x002d8b          0x6 build/default/production/_ext/1472/yawCntrl.o
 __c30_signature
                  0x002d91          0x6 build/default/production/_ext/1472/telemetry.o
 __c30_signature
                  0x002d97          0x6 build/default/production/_ext/1472/servoPrepare.o
 __c30_signature
                  0x002d9d          0x6 build/default/production/_ext/1472/flightplan-waypoints.o
 __c30_signature
                  0x002da3          0x6 build/default/production/_ext/1472/flightplan-logo.o
 __c30_signature
                  0x002da9          0x6 build/default/production/_ext/1472/mp_osd.o
 __c30_signature
                  0x002daf          0x6 build/default/production/_ext/1472/altitudeCntrl.o
 __c30_signature
                  0x002db5          0x6 build/default/production/_ext/1472/MAVLink.o
 __c30_signature
                  0x002dbb          0x6 build/default/production/_ext/1472/mode_switch.o
 __c30_signature
                  0x002dc1          0x6 build/default/production/_ext/1472/data_services.o
 __c30_signature
                  0x002dc7          0x6 build/default/production/_ext/1472/data_storage.o
 __c30_signature
                  0x002dcd          0x6 build/default/production/_ext/1472/nv_memory_table.o
 __c30_signature
                  0x002dd3          0x6 build/default/production/_ext/1472/parameter_table.o
 __c30_signature
                  0x002dd9          0x6 build/default/production/_ext/1472/airspeedCntrl.o
 __c30_signature
                  0x002ddf          0x6 build/default/production/_ext/1472/altitudeCntrlVariable.o
 __c30_signature
                  0x002de5          0x6 build/default/production/_ext/1472/euler_angles.o
 __c30_signature
                  0x002deb          0x6 build/default/production/_ext/1472/console.o
 __c30_signature
                  0x002df1          0x6 build/default/production/_ext/1472/sonarCntrl.o
 __c30_signature
                  0x002df7          0x6 build/default/production/_ext/1472/motorCntrl.o
 __c30_signature
                  0x002dfd          0x6 c:/program files (x86)/microchip/xc16/v1.31/bin/bin/../../lib/dsPIC33F\libp33FJ256GP710A-elf.a(CloseSPI1.o)
 __c30_signature
                  0x002e03          0x6 c:/program files (x86)/microchip/xc16/v1.31/bin/bin/../../lib/dsPIC33F\libp33FJ256GP710A-elf.a(CloseSPI2.o)
 __c30_signature
                  0x002e09          0x6 c:/program files (x86)/microchip/xc16/v1.31/bin/bin/../../lib/dsPIC33F\libp33FJ256GP710A-elf.a(ConfigIntSPI1.o)
 __c30_signature
                  0x002e0f          0x6 c:/program files (x86)/microchip/xc16/v1.31/bin/bin/../../lib/dsPIC33F\libp33FJ256GP710A-elf.a(ConfigIntSPI2.o)
 __c30_signature
                  0x002e15          0x6 c:/program files (x86)/microchip/xc16/v1.31/bin/bin/../../lib/dsPIC33F\libp33FJ256GP710A-elf.a(OpenSPI1.o)
 __c30_signature
                  0x002e1b          0x6 c:/program files (x86)/microchip/xc16/v1.31/bin/bin/../../lib/dsPIC33F\libp33FJ256GP710A-elf.a(OpenSPI2.o)
 __c30_signature
                  0x002e21          0x6 c:/program files (x86)/microchip/xc16/v1.31/bin/bin/../../lib\liblega-pic30-elf.a(crt0_standard.o)
 __c30_signature
                  0x002e27          0x6 c:/program files (x86)/microchip/xc16/v1.31/bin/bin/../../lib\liblega-pic30-elf.a(data_init_standard.o)
 __c30_signature
                  0x002e2d          0x6 c:/program files (x86)/microchip/xc16/v1.31/bin/bin/../../lib\liblega-pic30-elf.a(c30_uart.Leo)
 __c30_signature
                  0x002e33          0x6 c:/program files (x86)/microchip/xc16/v1.31/bin/bin/../../lib\liblega-pic30-elf.a(delay32.Leo)
 __c30_signature
                  0x002e39          0x6 c:/program files (x86)/microchip/xc16/v1.31/bin/bin/../../lib\libm-elf.a(addsf3.eo)
 __c30_signature
                  0x002e3f          0x6 c:/program files (x86)/microchip/xc16/v1.31/bin/bin/../../lib\libm-elf.a(divsf3.eo)
 __c30_signature
                  0x002e45          0x6 c:/program files (x86)/microchip/xc16/v1.31/bin/bin/../../lib\libm-elf.a(divsi3.eo)
 __c30_signature
                  0x002e4b          0x6 c:/program files (x86)/microchip/xc16/v1.31/bin/bin/../../lib\libm-elf.a(fixsfsi.eo)
 __c30_signature
                  0x002e51          0x6 c:/program files (x86)/microchip/xc16/v1.31/bin/bin/../../lib\libm-elf.a(fixunssfsi.eo)
 __c30_signature
                  0x002e57          0x6 c:/program files (x86)/microchip/xc16/v1.31/bin/bin/../../lib\libm-elf.a(floatsisf.eo)
 __c30_signature
                  0x002e5d          0x6 c:/program files (x86)/microchip/xc16/v1.31/bin/bin/../../lib\libm-elf.a(floatunsisf.eo)
 __c30_signature
                  0x002e63          0x6 c:/program files (x86)/microchip/xc16/v1.31/bin/bin/../../lib\libm-elf.a(fpack.eo)
 __c30_signature
                  0x002e69          0x6 c:/program files (x86)/microchip/xc16/v1.31/bin/bin/../../lib\libm-elf.a(funpack.eo)
 __c30_signature
                  0x002e6f          0x6 c:/program files (x86)/microchip/xc16/v1.31/bin/bin/../../lib\libm-elf.a(funpack2.eo)
 __c30_signature
                  0x002e75          0x6 c:/program files (x86)/microchip/xc16/v1.31/bin/bin/../../lib\libm-elf.a(futil.eo)
 __c30_signature
                  0x002e7b          0x6 c:/program files (x86)/microchip/xc16/v1.31/bin/bin/../../lib\libm-elf.a(mulsf3.eo)
 __c30_signature
                  0x002e81          0x6 c:/program files (x86)/microchip/xc16/v1.31/bin/bin/../../lib\libm-elf.a(powf.eo)
 __c30_signature
                  0x002e87          0x6 c:/program files (x86)/microchip/xc16/v1.31/bin/bin/../../lib\libm-elf.a(udivsi3.eo)
 __c30_signature
                  0x002e8d          0x6 c:/program files (x86)/microchip/xc16/v1.31/bin/bin/../../lib\libm-elf.a(divmoddi3.eo)
 __c30_signature
                  0x002e93          0x6 c:/program files (x86)/microchip/xc16/v1.31/bin/bin/../../lib\libm-elf.a(_frexpf.eo)
 __c30_signature
                  0x002e99          0x6 c:/program files (x86)/microchip/xc16/v1.31/bin/bin/../../lib\libm-elf.a(errno.eo)
 __c30_signature
                  0x002e9f          0x6 c:/program files (x86)/microchip/xc16/v1.31/bin/bin/../../lib\libm-elf.a(expf.eo)
 __c30_signature
                  0x002ea5          0x6 c:/program files (x86)/microchip/xc16/v1.31/bin/bin/../../lib\libm-elf.a(fchop.eo)
 __c30_signature
                  0x002eab          0x6 c:/program files (x86)/microchip/xc16/v1.31/bin/bin/../../lib\libm-elf.a(feqltle.eo)
 __c30_signature
                  0x002eb1          0x6 c:/program files (x86)/microchip/xc16/v1.31/bin/bin/../../lib\libm-elf.a(fgtge.eo)
 __c30_signature
                  0x002eb7          0x6 c:/program files (x86)/microchip/xc16/v1.31/bin/bin/../../lib\libm-elf.a(floatdisf.eo)
 __c30_signature
                  0x002ebd          0x6 c:/program files (x86)/microchip/xc16/v1.31/bin/bin/../../lib\libm-elf.a(floatundisf.eo)
 __c30_signature
                  0x002ec3          0x6 c:/program files (x86)/microchip/xc16/v1.31/bin/bin/../../lib\libm-elf.a(ldexpf.eo)
 __c30_signature
                  0x002ec9          0x6 c:/program files (x86)/microchip/xc16/v1.31/bin/bin/../../lib\libm-elf.a(logf.eo)
 __c30_signature
                  0x002ecf          0x6 c:/program files (x86)/microchip/xc16/v1.31/bin/bin/../../lib\libm-elf.a(fcompare.eo)
 __c30_signature
                  0x002ed5          0x6 c:/program files (x86)/microchip/xc16/v1.31/bin/bin/../../lib\liblega-c-elf.a(calloc.XX_eo)
 __c30_signature
                  0x002edb          0x6 c:/program files (x86)/microchip/xc16/v1.31/bin/bin/../../lib\liblega-c-elf.a(malloc.XX_eo)
 __c30_signature
                  0x002ee1          0x6 c:/program files (x86)/microchip/xc16/v1.31/bin/bin/../../lib\liblega-c-elf.a(memset.XX_eo)
 __c30_signature
                  0x002ee7          0x6 c:/program files (x86)/microchip/xc16/v1.31/bin/bin/../../lib\liblega-c-elf.a(strlen.XX_eo)
 __c30_signature
                  0x002eed          0x6 c:/program files (x86)/microchip/xc16/v1.31/bin/bin/../../lib\liblega-c-elf.a(xgetmem.XX_eo)
 __c30_signature
                  0x002ef3          0x6 c:/program files (x86)/microchip/xc16/v1.31/bin/bin/../../lib\liblega-c-elf.a(vsnprint.XX_eo)
 __c30_signature
                  0x002ef9          0x6 c:/program files (x86)/microchip/xc16/v1.31/bin/bin/../../lib\liblega-c-elf.a(xprintf.XX_eo)
 __c30_signature
                  0x002eff          0x6 c:/program files (x86)/microchip/xc16/v1.31/bin/bin/../../lib\liblega-c-elf.a(xputfld.XX_eo)
 __c30_signature
                  0x002f05          0x6 c:/program files (x86)/microchip/xc16/v1.31/bin/bin/../../lib\liblega-c-elf.a(strchr.XX_elo)
 __c30_signature
                  0x002f0b          0x6 c:/program files (x86)/microchip/xc16/v1.31/bin/bin/../../lib\liblega-c-elf.a(xvacopy.XX_elo)
 __c30_signature
                  0x002f11          0x6 c:/program files (x86)/microchip/xc16/v1.31/bin/bin/../../lib\liblega-c-elf.a(printf_cdnopuxX.XXeo)
 __c30_signature
                  0x002f17          0x6 c:/program files (x86)/microchip/xc16/v1.31/bin/bin/../../lib\liblega-c-elf.a(xprintf_cdnopuxX.XXeo)
 __c30_signature
                  0x002f1d          0x6 c:/program files (x86)/microchip/xc16/v1.31/bin/bin/../../lib\liblega-c-elf.a(xputfld_cdnopuxX.XXeo)
 __c30_signature
                  0x002f23          0x6 c:/program files (x86)/microchip/xc16/v1.31/bin/bin/../../lib\liblega-c-elf.a(free.XX_eo)
 __c30_signature
                  0x002f29          0x6 c:/program files (x86)/microchip/xc16/v1.31/bin/bin/../../lib\liblega-c-elf.a(fwrite.XX_eo)
 __c30_signature
                  0x002f2f          0x6 c:/program files (x86)/microchip/xc16/v1.31/bin/bin/../../lib\liblega-c-elf.a(memchr.XX_eo)
 __c30_signature
                  0x002f35          0x6 c:/program files (x86)/microchip/xc16/v1.31/bin/bin/../../lib\liblega-c-elf.a(memcpy.XX_eo)
 __c30_signature
                  0x002f3b          0x6 c:/program files (x86)/microchip/xc16/v1.31/bin/bin/../../lib\liblega-c-elf.a(xfiles.XX_eo)
 __c30_signature
                  0x002f41          0x6 c:/program files (x86)/microchip/xc16/v1.31/bin/bin/../../lib\liblega-c-elf.a(xfwprep.XX_eo)
 __c30_signature
                  0x002f47          0x6 c:/program files (x86)/microchip/xc16/v1.31/bin/bin/../../lib\liblega-c-elf.a(xldtob.XX_eo)
 __c30_signature
                  0x002f4d          0x6 c:/program files (x86)/microchip/xc16/v1.31/bin/bin/../../lib\liblega-c-elf.a(xldunsca.XX_eo)
 __c30_signature
                  0x002f53          0x6 c:/program files (x86)/microchip/xc16/v1.31/bin/bin/../../lib\liblega-c-elf.a(xlitob.XX_eo)
 __c30_signature
                  0x002f59          0x6 c:/program files (x86)/microchip/xc16/v1.31/bin/bin/../../lib\liblega-c-elf.a(xputtxt.XX_eo)
 __c30_signature
                  0x002f5f          0x6 c:/program files (x86)/microchip/xc16/v1.31/bin/bin/../../lib\liblega-c-elf.a(fclose.XX_elo)
 __c30_signature
                  0x002f65          0x6 c:/program files (x86)/microchip/xc16/v1.31/bin/bin/../../lib\liblega-c-elf.a(fflush.XX_elo)
 __c30_signature
                  0x002f6b          0x6 c:/program files (x86)/microchip/xc16/v1.31/bin/bin/../../lib\liblega-c-elf.a(ldiv.XX_elo)
 __c30_signature
                  0x002f71          0x6 c:/program files (x86)/microchip/xc16/v1.31/bin/bin/../../lib\liblega-c-elf.a(xatexit.XX_elo)
 __c30_signature
                  0x002f77          0x6 c:/program files (x86)/microchip/xc16/v1.31/bin/bin/../../lib\liblega-c-elf.a(xdnorm.XX_elo)
 __c30_signature
                  0x002f7d          0x6 c:/program files (x86)/microchip/xc16/v1.31/bin/bin/../../lib\liblega-c-elf.a(xldscale.XX_elo)
 __c30_signature
                  0x002f83          0x6 c:/program files (x86)/microchip/xc16/v1.31/bin/bin/../../lib\liblega-c-elf.a(xgenld.XX_eo)
 __c30_signature
                  0x002f89          0x6 c:/program files (x86)/microchip/xc16/v1.31/bin/bin/../../lib\liblega-c-elf.a(div.XX_elo)
 __c30_signature
                  0x002f8f          0x6 c:/program files (x86)/microchip/xc16/v1.31/bin/bin/../../lib\liblega-pic30-elf.a(close.Leo)
 __c30_signature
                  0x002f95          0x6 c:/program files (x86)/microchip/xc16/v1.31/bin/bin/../../lib\liblega-pic30-elf.a(remove.Leo)
 __c30_signature
                  0x002f9b          0x6 c:/program files (x86)/microchip/xc16/v1.31/bin/bin/../../lib\liblega-pic30-elf.a(sbrk.Leo)
 __c30_signature
                  0x002fa1          0x6 c:/program files (x86)/microchip/xc16/v1.31/bin/bin/../../lib\liblega-pic30-elf.a(brk.Lelo)
 __c30_signature
                  0x002fa7          0x6 c:/program files (x86)/microchip/xc16/v1.31/bin/bin/../../lib\libm-elf.a(deqltle.eo)
 __c30_signature
                  0x002fad          0x6 c:/program files (x86)/microchip/xc16/v1.31/bin/bin/../../lib\libm-elf.a(dgtge.eo)
 __c30_signature
                  0x002fb3          0x6 c:/program files (x86)/microchip/xc16/v1.31/bin/bin/../../lib\libm-elf.a(divdf3.eo)
 __c30_signature
                  0x002fb9          0x6 c:/program files (x86)/microchip/xc16/v1.31/bin/bin/../../lib\libm-elf.a(dpack.eo)
 __c30_signature
                  0x002fbf          0x6 c:/program files (x86)/microchip/xc16/v1.31/bin/bin/../../lib\libm-elf.a(dunpack2.eo)
 __c30_signature
                  0x002fc5          0x6 c:/program files (x86)/microchip/xc16/v1.31/bin/bin/../../lib\libm-elf.a(extendsfdf.eo)
 __c30_signature
                  0x002fcb          0x6 c:/program files (x86)/microchip/xc16/v1.31/bin/bin/../../lib\libm-elf.a(fixdfsi.eo)
 __c30_signature
                  0x002fd1          0x6 c:/program files (x86)/microchip/xc16/v1.31/bin/bin/../../lib\libm-elf.a(floatsidf.eo)
 __c30_signature
                  0x002fd7          0x6 c:/program files (x86)/microchip/xc16/v1.31/bin/bin/../../lib\libm-elf.a(muldf3.eo)
 __c30_signature
                  0x002fdd          0x6 c:/program files (x86)/microchip/xc16/v1.31/bin/bin/../../lib\libm-elf.a(subdf3.eo)
 __c30_signature
                  0x002fe3          0x6 c:/program files (x86)/microchip/xc16/v1.31/bin/bin/../../lib\libm-elf.a(umodsi3.eo)
 __c30_signature
                  0x002fe9          0x6 c:/program files (x86)/microchip/xc16/v1.31/bin/bin/../../lib\libm-elf.a(mulsi3.eo)
 __c30_signature
                  0x002fef          0x6 c:/program files (x86)/microchip/xc16/v1.31/bin/bin/../../lib\libm-elf.a(adddf3.eo)
 __c30_signature
                  0x002ff5          0x6 c:/program files (x86)/microchip/xc16/v1.31/bin/bin/../../lib\libm-elf.a(dcompare.eo)
 __c30_signature
                  0x002ffb          0x6 c:/program files (x86)/microchip/xc16/v1.31/bin/bin/../../lib\libm-elf.a(dpropagateNaN.eo)
 __c30_signature
                  0x003001          0x6 c:/program files (x86)/microchip/xc16/v1.31/bin/bin/../../lib\libm-elf.a(dtype.eo)
 __c30_signature
                  0x003007          0x6 c:/program files (x86)/microchip/xc16/v1.31/bin/bin/../../lib\libm-elf.a(dunpack.eo)
 __c30_signature
                  0x00300d          0x6 c:/program files (x86)/microchip/xc16/v1.31/bin/bin/../../lib\libm-elf.a(floatdidf.eo)
 __c30_signature
                  0x003013          0x6 c:/program files (x86)/microchip/xc16/v1.31/bin/bin/../../lib\libm-elf.a(floatundidf.eo)

_03F0772058f53da6
                    0x7fc0          0xc
 _03F0772058f53da6
                    0x7fc0          0xc build/default/production/_ext/1077454706/analog2digital_udb5.o
                    0x7fc0                  _BufferB

_03F0760058f53da6
                    0x7fe0          0xc
 _03F0760058f53da6
                    0x7fe0          0xc build/default/production/_ext/1077454706/analog2digital_udb5.o
                    0x7fe0                  _BufferA

.nbss               0x0800        0x240
 .nbss              0x0800         0x78 build/default/production/_ext/1472/altitudeCntrl.o
                    0x0800                  _throttleFiltered
                    0x0804                  _speed_height
                    0x0808                  _pitchAltitudeAdjust
                    0x080a                  _filterManual
                    0x080c                  _desiredHeight
                    0x080e                  _hover_counter
                    0x0810                  _synthetic_throttle_counter
                    0x0812                  _z_filtered_flt
                    0x0816                  _z_filtered
                    0x0818                  _z_filtered32_flt
                    0x081c                  _z_filtered32
                    0x0820                  _target_z_filtered_flt
                    0x0824                  _target_z_filtered
                    0x0826                  _target_vz_filtered_flt
                    0x082a                  _target_vz_filtered
                    0x082c                  _vz_filtered_flt
                    0x0830                  _vz_filtered
                    0x0832                  _accz_filtered_flt
                    0x0836                  _accz_filtered
                    0x0838                  _hover_error_integral_z
                    0x083a                  _error_integral_z
                    0x083e                  _error_integral_vz
                    0x0842                  _error_integral_accz
                    0x0846                  _previous_z32
                    0x084a                  _failsafe_throttle_mode
                    0x084c                  _rampe_throttle
                    0x084e                  _hover_target_z
                    0x0850                  _hover_z
                    0x0852                  _hover_vz
                    0x0854                  _hover_accz
                    0x0856                  _hover_error_z
                    0x0858                  _hover_error_vz
                    0x085a                  _hover_error_integral_vz
                    0x085c                  _hover_error_accz
                    0x085e                  _hover_error_integral_accz
                    0x0860                  _hover_target_vz
                    0x0862                  _hover_target_accz
                    0x0864                  _invdeltafilterheight
                    0x0868                  _invdeltafiltervz
                    0x086c                  _sonar_distance
                    0x086e                  _sonar_height_to_ground
                    0x0870                  _good_sample_count
                    0x0871                  _is_init_failsafe
                    0x0872                  _is_in_hovering_failsafe
                    0x0874                  _no_readings_count
                    0x0876                  _distance_yaw_corr
 .nbss              0x0878         0x5e build/default/production/_ext/1472/motorCntrl.o
                    0x0878                  _desired_roll
                    0x087a                  _desired_pitch
                    0x087c                  _desired_yaw
                    0x087e                  _roll_quad_control
                    0x0880                  _pitch_quad_control
                    0x0882                  _yaw_quad_control
                    0x0884                  _accel_feedback
                    0x0886                  _commanded_roll
                    0x0888                  _commanded_pitch
                    0x088a                  _commanded_yaw
                    0x088c                  _pitch_body_frame_control
                    0x088e                  _roll_body_frame_control
                    0x0890                  _earth_yaw
                    0x0892                  _earth_roll
                    0x0894                  _earth_pitch
                    0x0896                  _roll_error
                    0x0898                  _pitch_error
                    0x089a                  _yaw_error
                    0x089c                  _roll_intgrl
                    0x089e                  _pitch_intgrl
                    0x08a0                  _yaw_intgrl
                    0x08a2                  _roll_rate_error_delta_filt
                    0x08a4                  _pitch_rate_error_delta_filt
                    0x08a6                  _roll_rate_error_previous
                    0x08a8                  _pitch_rate_error_previous
                    0x08aa                  _roll_rate_error_delta_filt_flt
                    0x08ae                  _pitch_rate_error_delta_filt_flt
                    0x08b2                  _rampe_yaw
                    0x08b4                  _ptr
                    0x08b6                  _z_filt_debug
                    0x08ba                  _roll_quad_error_integral
                    0x08be                  _pitch_quad_error_integral
                    0x08c2                  _yaw_quad_error_integral
                    0x08c6                  _tilt_ki
                    0x08c8                  _tilt_kp
                    0x08ca                  _tilt_rate_kp
                    0x08cc                  _tilt_rate_kd
                    0x08ce                  _yaw_ki
                    0x08d0                  _yaw_kp
                    0x08d2                  _yaw_rate_ki
                    0x08d4                  _yaw_rate_kp
 .nbss              0x08d6         0x46 build/default/production/_ext/1077471063/gpsParseCommon.o
                    0x08d6                  _lat_gps
                    0x08da                  _long_gps
                    0x08de                  _alt_sl_gps
                    0x08e2                  _tow
                    0x08e6                  _sog_gps
                    0x08e8                  _cog_gps
                    0x08ea                  _climb_gps
                    0x08ec                  _week_no
                    0x08ee                  _as_sim
                    0x08f0                  _hdop
                    0x08f2                  _lat_origin
                    0x08f6                  _long_origin
                    0x08fa                  _alt_origin
                    0x08fe                  _svs
                    0x08ff                  _lat_cir
                    0x0900                  _cos_lat
                    0x0902                  _gps_data_age
                    0x0904                  _gps_out_buffer
                    0x0906                  _gps_out_buffer_length
                    0x0908                  _gps_out_index
                    0x090a                  _actual_dir
                    0x090c                  _ground_velocity_magnitudeXY
                    0x090e                  _forward_acceleration
                    0x0910                  _air_speed_magnitudeXY
                    0x0912                  _air_speed_3DGPS
                    0x0914                  _calculated_heading
 .nbss              0x091c         0x28 build/default/production/_ext/1077471063/gpsParseSTD.o
                    0x091c                  _payloadlength
                    0x091e                  _store_index
                    0x0920                  _un
                    0x0921                  _svs_
                    0x0922                  _lat_gps_
                    0x0926                  _long_gps_
                    0x092a                  _alt_sl_gps_
                    0x092e                  _tow_
                    0x0932                  _nav_valid_
                    0x0934                  _nav_type_
                    0x0936                  _sog_gps_
                    0x0938                  _cog_gps_
                    0x093a                  _climb_gps_
                    0x093c                  _week_no_
                    0x093e                  _hdop_
                    0x0940                  _checksum_
                    0x0942                  _calculated_checksum
 .nbss              0x0944         0x28 build/default/production/_ext/1077471063/deadReckoning.o
                    0x0944                  _IMUvelocityx
                    0x0948                  _IMUvelocityy
                    0x094c                  _IMUvelocityz
                    0x0950                  _IMUlocationx
                    0x0954                  _IMUlocationy
                    0x0958                  _IMUlocationz
                    0x095c                  _IMUintegralAccelerationx
                    0x0960                  _IMUintegralAccelerationy
                    0x0964                  _IMUintegralAccelerationz
                    0x0968                  _air_speed_3DIMU
                    0x096a                  _total_energy
 .nbss              0x096c         0x22 build/default/production/_ext/1472/telemetry.o
                    0x096c                  _voltage_milis
                    0x096e                  _voltage_temp
                    0x0970                  _fp_high_byte
                    0x0971                  _fp_checksum
                    0x0972                  _sb_index
                    0x0974                  _end_index
                    0x0976                  _additional_int16_export1
                    0x0978                  _additional_int16_export2
                    0x097a                  _additional_int16_export3
                    0x097c                  _additional_int16_export4
                    0x097e                  _additional_int16_export5
                    0x0980                  _additional_int16_export6
                    0x0982                  _additional_int16_export7
                    0x0984                  _additional_int16_export8
                    0x0986                  _additional_int16_export9
                    0x0988                  _additional_int32_export1
 .nbss              0x098e         0x18 build/default/production/_ext/1077471063/estAltitude.o
                    0x098e                  _barometer_pressure_gnd
                    0x0992                  _barometer_temperature_gnd
                    0x0994                  _barometer_altitude
                    0x0998                  _barometer_agl_altitude
                    0x099c                  _barometer_pressure
                    0x09a0                  _barometer_temperature
                    0x09a2                  _sea_level_pressure
 .nbss              0x09a6         0x18 build/default/production/_ext/1077454706/radioIn.o
                    0x09a6                  _udb_pwm_sonar
                    0x09a8                  _failSafePulses
                    0x09aa                  _noisePulses
                    0x09ac                  _sonar_pwm_count
 .nbss              0x09be         0x18 build/default/production/_ext/1472/navigate.o
                    0x09be                  _togoal
                    0x09c2                  _tofinish_line
                    0x09c4                  _progress_to_goal
                    0x09c6                  _desired_dir
                    0x09c7                  _is_init_flightplan0
                    0x09c8                  _togoalx_flt
                    0x09cc                  _togoaly_flt
                    0x09d0                  _desired_bearing_over_ground
                    0x09d2                  _desired_bearing_over_ground_vector
 .nbss              0x09d6         0x18 build/default/production/_ext/1472/pitchCntrl.o
                    0x09d6                  _pitchrate
                    0x09d8                  _navElevMix
                    0x09da                  _elevInput
                    0x09dc                  _hovering_pitch_dir
                    0x09de                  _pitch_error_integral
                    0x09e2                  _pitch_error_filtered_flt
                    0x09e6                  _pitch_error_filtered
                    0x09e8                  _pitch_hover_counter
                    0x09ea                  _hover_error_y
                    0x09ec                  _hover_error_integral_y
 .nbss              0x09ee         0x14 build/default/production/_ext/1077454706/spiUtils.o
                    0x09ee                  _SPI1_data
                    0x09f0                  _SPI1_high
                    0x09f1                  _SPI1_low
                    0x09f2                  _SPI1_i
                    0x09f4                  _SPI1_j
                    0x09f6                  _SPI1_n
                    0x09f8                  _SPI2_data
                    0x09fa                  _SPI2_high
                    0x09fb                  _SPI2_low
                    0x09fc                  _SPI2_i
                    0x09fe                  _SPI2_j
                    0x0a00                  _SPI2_n
 .nbss              0x0a02         0x14 build/default/production/_ext/1472/servoPrepare.o
                    0x0a02                  _pitch_control
                    0x0a04                  _roll_control
                    0x0a06                  _yaw_control
                    0x0a08                  _throttle_control
                    0x0a0a                  _throttle_hover_control
                    0x0a0c                  _flap_control
                    0x0a0e                  _wind_gain
                    0x0a10                  _cam_pitch_servo_pwm_delta
                    0x0a12                  _cam_yaw_servo_pwm_delta
                    0x0a14                  _sonar_pitch_servo_pwm_delta
 .nbss              0x0a16         0x12 build/default/production/_ext/1472/rollCntrl.o
                    0x0a16                  _hovering_roll_dir
                    0x0a18                  _roll_error_integral
                    0x0a1c                  _roll_error_filtered_flt
                    0x0a20                  _roll_error_filtered
                    0x0a22                  _roll_hover_counter
                    0x0a24                  _hover_error_x
                    0x0a26                  _hover_error_integral_x
 .nbss              0x0a28          0xe build/default/production/_ext/1077454706/magnetometer.o
                    0x0a28                  _magMessage
                    0x0a2a                  _matrix_accum
 .nbss              0x0a36          0xa build/default/production/_ext/1077471063/rmat.o
                    0x0a36                  _spin_rate
                    0x0a3e                  _magFieldBodyMagnitudePrevious

.ndata              0x0a40          0xa
 .ndata             0x0a40          0xa build/default/production/_ext/1077471063/rmat.o
                    0x0a40                  _magAlignment

.nbss               0x0a4a         0x14
 .nbss              0x0a4a          0xa build/default/production/_ext/1077454706/barometer.o
                    0x0a52                  _barometer_callback
 .nbss              0x0a54          0xa build/default/production/_ext/1472/behavior.o
                    0x0a54                  _current_orientation
                    0x0a56                  _desired_behavior
                    0x0a58                  _cyclesUntilStartTriggerAction
                    0x0a5a                  _cyclesUntilStopTriggerAction
                    0x0a5c                  _currentTriggerActionValue

.ndata              0x0a5e          0xa
 .ndata             0x0a5e          0xa build/default/production/_ext/1472/altitudeCntrl.o
                    0x0a5e                  _aircraft_mass
                    0x0a60                  _max_thrust
                    0x0a62                  _nb_sample_wait
                    0x0a64                  _max_hover_alt
                    0x0a66                  _desiredSpeed

.nbss               0x0a68         0x24
 .nbss              0x0a68          0x6 build/default/production/_ext/1077454706/background.o
                    0x0a68                  _cpu_timer
                    0x0a6a                  __cpu_timer
                    0x0a6c                  _udb_heartbeat_counter
 .nbss              0x0a6e          0x6 build/default/production/_ext/1077454706/servoOut.o
                    0x0a6e                  _outputNum
                    0x0a70                  _outputNum2
                    0x0a72                  _outputNum3
 .nbss              0x0a74          0x6 build/default/production/_ext/1077454706/mpu6000.o
                    0x0a74                  _mpuCnt
                    0x0a76                  _mpuDAV
                    0x0a78                  _vref_adj
 .nbss              0x0a7a          0x6 build/default/production/_ext/1077454706/traps.o
                    0x0a7a                  _dmaErrFlag
                    0x0a7c                  _dmaPWErrLoc
                    0x0a7e                  _dmaRWErrLoc
 .nbss              0x0a80          0x6 build/default/production/_ext/1472/servoMix.o
                    0x0a80                  _aileronbgain
                    0x0a82                  _elevatorbgain
                    0x0a84                  _rudderbgain
 .nbss              0x0a86          0x6 build/default/production/_ext/1472/states.o
                    0x0a86                  _flags
                    0x0a88                  _waggle
                    0x0a8a                  _counter

.ndata              0x0a8c          0xa
 .ndata             0x0a8c          0x6 build/default/production/_ext/1472/states.o
                    0x0a90                  _stateS
 .ndata             0x0a92          0x4 build/default/production/_ext/1077454706/spiUtils.o
                    0x0a92                  _SPI1_read_call_back
                    0x0a94                  _SPI2_read_call_back

.nbss               0x0a96          0x4
 .nbss              0x0a96          0x4 build/default/production/_ext/1077454706/analog2digital_udb5.o
                    0x0a96                  _sample_count
                    0x0a98                  _DmaBuffer

_03EF284058f53da8
                    0x0a9a          0x4
 _03EF284058f53da8
                    0x0a9a          0x4 build/default/production/_ext/1077454706/mcu.o
                    0x0a9a                  _trap_source

.ndata              0x0a9e          0x8
 .ndata             0x0a9e          0x4 build/default/production/_ext/1077454706/I2C2.o
 .ndata             0x0aa2          0x4 build/default/production/_ext/1472/telemetry.o
                    0x0aa2                  _sio_parse

.nbss               0x0aa6          0x4
 .nbss              0x0aa6          0x4 build/default/production/_ext/1472/flightplan-waypoints.o
                    0x0aa6                  _waypointIndex
                    0x0aa8                  _wp_inject_pos

.ndata              0x0aaa          0x4
 .ndata             0x0aaa          0x4 build/default/production/_ext/1472/flightplan-waypoints.o
                    0x0aaa                  _currentWaypointSet
                    0x0aac                  _numPointsInCurrentSet

.nbss               0x0aae          0x4
 .nbss              0x0aae          0x4 build/default/production/_ext/1472/mode_switch.o

.ndata              0x0ab2          0x8
 .ndata             0x0ab2          0x4 build/default/production/_ext/1472/motorCntrl.o
                    0x0ab2                  _throttlemin
                    0x0ab4                  _throttlemax
 .ndata             0x0ab6          0x2 build/default/production/_ext/1077471063/gpsParseCommon.o
 .ndata             0x0ab8          0x2 build/default/production/_ext/1077471063/gpsParseSTD.o
                    0x0ab8                  _msg_parse

.nbss               0x0aba          0x4
 .nbss              0x0aba          0x2 build/default/production/_ext/1077471063/mathlibNAV.o
                    0x0aba                  _normalization_value
 .nbss              0x0abc          0x2 build/default/production/_ext/1077471063/libDCM.o
                    0x0abc                  _dcm_flags

.ndata              0x0abe          0x4
 .ndata             0x0abe          0x2 build/default/production/_ext/1077471063/libDCM.o
                    0x0abe                  _toggle
 .ndata             0x0ac0          0x2 build/default/production/_ext/1077471063/deadReckoning.o
                    0x0ac0                  _dead_reckon_clock

.nbss               0x0ac2          0x6
 .nbss              0x0ac2          0x2 build/default/production/_ext/1077454706/libUDB.o
                    0x0ac2                  _udb_flags
 .nbss              0x0ac4          0x2 build/default/production/_ext/1077454706/events.o
                    0x0ac4                  _event_init_done
 .nbss              0x0ac6          0x2 build/default/production/_ext/1077454706/mcu.o
                    0x0ac6                  _defaultCorcon

_03EF272058f53da8
                    0x0ac8          0x2
 _03EF272058f53da8
                    0x0ac8          0x2 build/default/production/_ext/1077454706/mcu.o
                    0x0ac8                  _trap_flags

_03EF28A058f53da8
                    0x0aca          0x2
 _03EF28A058f53da8
                    0x0aca          0x2 build/default/production/_ext/1077454706/mcu.o
                    0x0aca                  _osc_fail_count

.ndata              0x0acc          0x2
 .ndata             0x0acc          0x2 build/default/production/_ext/1077454706/eeprom_udb4.o
                    0x0acc                  _eeprom_control

.nbss               0x0ace          0x2
 .nbss              0x0ace          0x2 build/default/production/_ext/1077454706/I2C2.o

.ndata              0x0ad0          0x2
 .ndata             0x0ad0          0x2 build/default/production/_ext/1472/behavior.o
                    0x0ad0                  _minimum_airspeed

.nbss               0x0ad2          0x2
 .nbss              0x0ad2          0x2 build/default/production/_ext/1472/main.o
                    0x0ad2                  _commanded_tilt_gain

.ndata              0x0ad4          0x2
 .ndata             0x0ad4          0x2 build/default/production/_ext/1472/rollCntrl.o
                    0x0ad4                  _flap_min

.nbss               0x0ad6          0x4
 .nbss              0x0ad6          0x2 build/default/production/_ext/1472/yawCntrl.o
                    0x0ad6                  _plane_to_north
 .nbss              0x0ad8          0x2 c:/program files (x86)/microchip/xc16/v1.31/bin/bin/../../lib\libm-elf.a(errno.eo)
                    0x0ad8                  _errno

.bss                0x0ada        0x224
 .bss               0x0ada        0x224 build/default/production/_ext/1472/telemetry.o
                    0x0ada                  _serial_buffer

.data               0x0cfe        0x102
 .data              0x0cfe         0x88 c:/program files (x86)/microchip/xc16/v1.31/bin/bin/../../lib\liblega-c-elf.a(xfiles.XX_eo)
                    0x0cfe                  __Stdin
                    0x0d26                  __Stdout
                    0x0d4e                  __Stderr
                    0x0d76                  __Files
 .data              0x0d86         0x7a c:/program files (x86)/microchip/xc16/v1.31/bin/bin/../../lib\liblega-c-elf.a(xldtob.XX_eo)

.bss                0x0e00        0x122
 .bss               0x0e00         0x6c build/default/production/_ext/1077471063/rmat.o
                    0x0e00                  _omegagyro
                    0x0e18                  _accelEarth
                    0x0e2a                  _omegaAccum
                    0x0e36                  _errorYawground
                    0x0e42                  _theta
                    0x0e48                  _magFieldEarth
                    0x0e4e                  _rmatPrevious
                    0x0e60                  _magFieldEarthNormalizedPrevious
                    0x0e66                  _magFieldBodyPrevious
 .bss               0x0e6c         0x60 build/default/production/_ext/1077454706/events.o
                    0x0e6c                  _events
 .bss               0x0ecc         0x56 build/default/production/_ext/1077454706/mpu6000.o
                    0x0ecc                  _mpu_data
                    0x0edc                  _udb_xaccel
                    0x0ee6                  _udb_yaccel
                    0x0ef0                  _udb_zaccel
                    0x0efa                  _udb_xrate
                    0x0f04                  _udb_yrate
                    0x0f0e                  _udb_zrate
                    0x0f18                  _mpu_temp

.data               0x0f22         0x64
 .data              0x0f22         0x42 build/default/production/_ext/1077471063/rmat.o
                    0x0f22                  _ggain
                    0x0f28                  _spin_axis
                    0x0f2e                  _rmat
                    0x0f52                  _gplane
                    0x0f58                  _dirovergndHGPS
                    0x0f5e                  _dirovergndHRmat
 .data              0x0f64         0x22 c:/program files (x86)/microchip/xc16/v1.31/bin/bin/../../lib\liblega-c-elf.a(xlitob.XX_eo)

.bss                0x0f86         0x78
 .bss               0x0f86         0x20 build/default/production/_ext/1077454706/magnetometer.o
                    0x0f86                  _udb_magFieldBody
                    0x0f8c                  _udb_magOffset
                    0x0f92                  _rawMagCalib
                    0x0f98                  _magFieldRaw
 .bss               0x0fa6         0x20 build/default/production/_ext/1077454706/radioIn.o
                    0x0fa6                  _udb_pwIn
                    0x0fb6                  _udb_pwTrim
 .bss               0x0fc6         0x1e build/default/production/_ext/1077454706/analog2digital_udb5.o
                    0x0fc6                  _udb_vcc
                    0x0fd0                  _udb_5v
                    0x0fda                  _udb_vref
 .bss               0x0fe4         0x1a build/default/production/_ext/1077454706/barometer.o

.data               0x0ffe         0x34
 .data              0x0ffe         0x1a c:/program files (x86)/microchip/xc16/v1.31/bin/bin/../../lib\liblega-c-elf.a(xprintf.XX_eo)
 .data              0x1018         0x1a c:/program files (x86)/microchip/xc16/v1.31/bin/bin/../../lib\liblega-c-elf.a(xprintf_cdnopuxX.XXeo)

.bss                0x1032         0x16
 .bss               0x1032         0x16 build/default/production/_ext/1472/flightplan-waypoints.o
                    0x1032                  _wp_inject

.bss                0x7fcc         0x14
 .bss               0x7fcc         0x14 build/default/production/_ext/1077454706/I2C2.o

.bss                0x7fec         0x12
 .bss               0x7fec         0x12 build/default/production/_ext/1077471063/estWind.o
                    0x7fec                  _estimatedWind

.bss                0x1048         0x24
 .bss               0x1048         0x12 build/default/production/_ext/1077471063/gpsParseCommon.o
                    0x1048                  _GPSlocation
                    0x104e                  _GPSvelocity
 .bss               0x105a         0x12 build/default/production/_ext/1077454706/servoOut.o
                    0x105a                  _udb_pwOut

.data               0x106c         0x22
 .data              0x106c         0x12 build/default/production/_ext/1472/motorCntrl.o
                    0x106c                  _target_orientation
 .data              0x107e         0x10 build/default/production/_ext/1077454706/magnetometer.o
                    0x107e                  _magGain

.bss                0x108e         0x2c
 .bss               0x108e         0x10 build/default/production/_ext/1472/navigate.o
                    0x108e                  _goal
 .bss               0x109e         0x10 build/default/production/_ext/1472/motorCntrl.o
                    0x109e                  _pwManual
 .bss               0x10ae          0xc build/default/production/_ext/1077471063/deadReckoning.o
                    0x10ae                  _locationErrorEarth
                    0x10b4                  _velocityErrorEarth

.data               0x10ba          0x6
 .data              0x10ba          0x6 build/default/production/_ext/1472/cameraCntrl.o
                    0x10ba                  _view_location

.bss                0x10c0          0xa
 .bss               0x10c0          0x6 build/default/production/_ext/1472/cameraCntrl.o
                    0x10c0                  _camera_view
 .bss               0x10c6          0x4 c:/program files (x86)/microchip/xc16/v1.31/bin/bin/../../lib\liblega-c-elf.a(malloc.XX_eo)
                    0x10c6                  __Aldata

.data               0x7ffe          0x2
 .data              0x7ffe          0x2 build/default/production/_ext/1077454706/barometer.o

.data               0x10ca          0x4
 .data              0x10ca          0x2 c:/program files (x86)/microchip/xc16/v1.31/bin/bin/../../lib\liblega-pic30-elf.a(c30_uart.Leo)
                    0x10ca                  ___C30_UART
 .data              0x10cc          0x2 c:/program files (x86)/microchip/xc16/v1.31/bin/bin/../../lib\liblega-c-elf.a(malloc.XX_eo)
                    0x10cc                  __Size_block

.bss                0x10ce          0x2
 .bss               0x10ce          0x2 c:/program files (x86)/microchip/xc16/v1.31/bin/bin/../../lib\liblega-c-elf.a(fclose.XX_elo)

.data               0x10d0          0x2
 .data              0x10d0          0x2 c:/program files (x86)/microchip/xc16/v1.31/bin/bin/../../lib\liblega-c-elf.a(xgenld.XX_eo)

.bss                0x10d2          0x2
 .bss               0x10d2          0x2 c:/program files (x86)/microchip/xc16/v1.31/bin/bin/../../lib\liblega-pic30-elf.a(brk.Lelo)
                    0x10d2                  ___curbrk

.heap               0x10d4        0x400
 .heap              0x10d4        0x400 heap

.ivt._T1Interrupt
                  0x00001a          0x2
 .ivt._T1Interrupt
                  0x00001a          0x2 build/default/production/_ext/1077454706/background.o

.ivt._T7Interrupt
                  0x000074          0x2
 .ivt._T7Interrupt
                  0x000074          0x2 build/default/production/_ext/1077454706/background.o

.ivt._T5Interrupt
                  0x00004c          0x2
 .ivt._T5Interrupt
                  0x00004c          0x2 build/default/production/_ext/1077454706/background.o

.ivt._T6Interrupt
                  0x000072          0x2
 .ivt._T6Interrupt
                  0x000072          0x2 build/default/production/_ext/1077454706/background.o

.ivt._T4Interrupt
                  0x00004a          0x2
 .ivt._T4Interrupt
                  0x00004a          0x2 build/default/production/_ext/1077454706/servoOut.o

.ivt._T3Interrupt
                  0x000024          0x2
 .ivt._T3Interrupt
                  0x000024          0x2 build/default/production/_ext/1077454706/servoOut.o

.ivt._T8Interrupt
                  0x00007a          0x2
 .ivt._T8Interrupt
                  0x00007a          0x2 build/default/production/_ext/1077454706/servoOut.o

.ivt._C2Interrupt
                  0x000084          0x2
 .ivt._C2Interrupt
                  0x000084          0x2 build/default/production/_ext/1077454706/events.o

.ivt._C1Interrupt
                  0x00005a          0x2
 .ivt._C1Interrupt
                  0x00005a          0x2 build/default/production/_ext/1077454706/events.o

.ivt._INT3Interrupt
                  0x00007e          0x2
 .ivt._INT3Interrupt
                  0x00007e          0x2 build/default/production/_ext/1077454706/mpu6000.o

.ivt._SPI1Interrupt
                  0x000028          0x2
 .ivt._SPI1Interrupt
                  0x000028          0x2 build/default/production/_ext/1077454706/spiUtils.o

.ivt._SPI2Interrupt
                  0x000056          0x2
 .ivt._SPI2Interrupt
                  0x000056          0x2 build/default/production/_ext/1077454706/spiUtils.o

.ivt._DMA0Interrupt
                  0x00001c          0x2
 .ivt._DMA0Interrupt
                  0x00001c          0x2 build/default/production/_ext/1077454706/analog2digital_udb5.o

.ivt._OscillatorFail
                  0x000006          0x2
 .ivt._OscillatorFail
                  0x000006          0x2 build/default/production/_ext/1077454706/traps.o

.ivt._AddressError
                  0x000008          0x2
 .ivt._AddressError
                  0x000008          0x2 build/default/production/_ext/1077454706/traps.o

.ivt._StackError
                  0x00000a          0x2
 .ivt._StackError
                  0x00000a          0x2 build/default/production/_ext/1077454706/traps.o

.ivt._MathError
                  0x00000c          0x2
 .ivt._MathError
                  0x00000c          0x2 build/default/production/_ext/1077454706/traps.o

.ivt._DMACError
                  0x00000e          0x2
 .ivt._DMACError
                  0x00000e          0x2 build/default/production/_ext/1077454706/traps.o

.ivt._MI2C2Interrupt
                  0x000078          0x2
 .ivt._MI2C2Interrupt
                  0x000078          0x2 build/default/production/_ext/1077454706/I2C2.o

.ivt._IC1Interrupt
                  0x000016          0x2
 .ivt._IC1Interrupt
                  0x000016          0x2 build/default/production/_ext/1077454706/radioIn.o

.ivt._IC2Interrupt
                  0x00001e          0x2
 .ivt._IC2Interrupt
                  0x00001e          0x2 build/default/production/_ext/1077454706/radioIn.o

.ivt._IC3Interrupt
                  0x00005e          0x2
 .ivt._IC3Interrupt
                  0x00005e          0x2 build/default/production/_ext/1077454706/radioIn.o

.ivt._IC4Interrupt
                  0x000060          0x2
 .ivt._IC4Interrupt
                  0x000060          0x2 build/default/production/_ext/1077454706/radioIn.o

.ivt._IC5Interrupt
                  0x000062          0x2
 .ivt._IC5Interrupt
                  0x000062          0x2 build/default/production/_ext/1077454706/radioIn.o

.ivt._IC6Interrupt
                  0x000064          0x2
 .ivt._IC6Interrupt
                  0x000064          0x2 build/default/production/_ext/1077454706/radioIn.o

.ivt._IC7Interrupt
                  0x000040          0x2
 .ivt._IC7Interrupt
                  0x000040          0x2 build/default/production/_ext/1077454706/radioIn.o

.ivt._IC8Interrupt
                  0x000042          0x2
 .ivt._IC8Interrupt
                  0x000042          0x2 build/default/production/_ext/1077454706/radioIn.o

.ivt._U1TXInterrupt
                  0x00002c          0x2
 .ivt._U1TXInterrupt
                  0x00002c          0x2 build/default/production/_ext/1077454706/serialIO.o

.ivt._U1RXInterrupt
                  0x00002a          0x2
 .ivt._U1RXInterrupt
                  0x00002a          0x2 build/default/production/_ext/1077454706/serialIO.o

.ivt._U2TXInterrupt
                  0x000052          0x2
 .ivt._U2TXInterrupt
                  0x000052          0x2 build/default/production/_ext/1077454706/serialIO.o

.ivt._U2RXInterrupt
                  0x000050          0x2
 .ivt._U2RXInterrupt
                  0x000050          0x2 build/default/production/_ext/1077454706/serialIO.o

.const              0xb1fe        0x6d0 load address 0x0031fe  
 .const             0xb1fe        0x40e build/default/production/_ext/1472/telemetry.o
 .const             0xb60c         0xe0 build/default/production/_ext/1077471063/gpsParseSTD.o
                    0xb60c                  _bin_mode
                    0xb628                  _mode
                    0xb632                  _mode_length
                    0xb634                  _msg41parse
 .const             0xb6ec         0xdc build/default/production/_ext/1077471063/mathlibNAV.o
                    0xb6ec                  _sintab
                    0xb76e                  _sga_coefficients
 .const             0xb7c8         0x42 build/default/production/_ext/1472/flightplan-waypoints.o
                    0xb7c8                  _waypoints
                    0xb7de                  _rtlWaypoints
                    0xb7f4                  _wp_inject_byte_order
 .const             0xb80a         0x3a build/default/production/_ext/1472/altitudeCntrl.o
                    0xb80a                  _hoverthrottlemax
                    0xb80c                  _hoverthrottlemin
                    0xb80e                  _hoverthrottleoffset
                    0xb810                  _invdeltafiltersonar
                    0xb814                  _invdeltafiltertargetz
                    0xb818                  _invdeltafilterbaro
                    0xb81c                  _invdeltafilteraccel
                    0xb820                  _hovertargetheightmin
                    0xb822                  _hovertargetheightmax
                    0xb824                  _hovertargetvzmin
                    0xb826                  _hovertargetvzmax
                    0xb828                  _limittargetvz
                    0xb82a                  _limittargetaccz
                    0xb82c                  _hoverthrottlezkp
                    0xb82e                  _hoverthrottlezki
                    0xb830                  _limitintegralz
                    0xb834                  _hoverthrottlevzkp
                    0xb836                  _hoverthrottlevzki
                    0xb838                  _limitintegralvz
                    0xb83c                  _hoverthrottleacczkp
                    0xb83e                  _hoverthrottleacczki
                    0xb840                  _limitintegralaccz
 .const             0xb844         0x34 build/default/production/_ext/1077454706/mpu6000.o
 .const             0xb878         0x14 build/default/production/_ext/1472/pitchCntrl.o
                    0xb878                  _pitchgain
                    0xb87a                  _pitchkd
                    0xb87c                  _rudderElevMixGain
                    0xb87e                  _rollElevMixGain
                    0xb880                  _hoverpitchToWPkp
                    0xb882                  _hoverpitchToWPki
                    0xb884                  _limitintegralpitchToWP
                    0xb888                  _invdeltafilterpitch
 .const             0xb88c         0x12 build/default/production/_ext/1472/cameraCntrl.o
                    0xb88c                  _pitch_servo_high_ratio
                    0xb88e                  _yaw_servo_high_ratio
                    0xb890                  _tan_pitch_in_stabilized_mode
                    0xb892                  _pitch_offset_centred_pwm
                    0xb894                  _yaw_offset_centred_pwm
                    0xb896                  _pitch_servo_pwm_max
                    0xb898                  _pitch_servo_pwm_min
                    0xb89a                  _yaw_servo_pwm_max
                    0xb89c                  _yaw_servo_pwm_min
 .const             0xb89e         0x12 build/default/production/_ext/1472/rollCntrl.o
                    0xb89e                  _yawkdail
                    0xb8a0                  _rollkp
                    0xb8a2                  _rollkd
                    0xb8a4                  _hoverrollToWPkp
                    0xb8a6                  _hoverrollToWPki
                    0xb8a8                  _limitintegralrollToWP
                    0xb8ac                  _invdeltafilterroll
 .const             0xb8b0          0xc build/default/production/_ext/1472/sonarCntrl.o
                    0xb8b0                  _sonar_pitch_servo_high_ratio
                    0xb8b2                  _sonar_tan_pitch_in_stabilized_mode
                    0xb8b4                  _sonar_pitch_offset_centred_pwm
                    0xb8b6                  _sonar_pitch_offset_pwm
                    0xb8b8                  _sonar_pitch_servo_pwm_max
                    0xb8ba                  _sonar_pitch_servo_pwm_min
 .const             0xb8bc          0x6 build/default/production/_ext/1472/yawCntrl.o
                    0xb8bc                  _yawkdrud
                    0xb8be                  _rollkprud
                    0xb8c0                  _rollkdrud
 .const             0xb8c2          0x4 build/default/production/_ext/1077454706/barometer.o
 .const             0xb8c6          0x4 build/default/production/_ext/1472/navigate.o
                    0xb8c6                  _yawkpail
                    0xb8c8                  _yawkprud
 .const             0xb8ca          0x2 build/default/production/_ext/1472/main.o
                    0xb8ca                  _max_tilt
 .const             0xb8cc          0x2 build/default/production/_ext/1472/motorCntrl.o
                    0xb8cc                  _yaw_command_gain

.text             0x0038ce       0x3f92
 .text            0x0038ce        0xe8c build/default/production/_ext/1077471063/rmat.o
                  0x0038ce                  _dcm_init_rmat
                  0x003994                  _read_gyros
                  0x003a36                  _read_accel
                  0x003d14                  _MatrixRotate
                  0x003e1c                  _matrix_normalize
                  0x004532                  _udb_magnetometer_callback
                  0x004738                  _dcm_run_imu_step
 .text            0x00475a        0xa12 build/default/production/_ext/1077471063/mathlibNAV.o
                  0x00475a                  _sine
                  0x0047b6                  _arcsine
                  0x004858                  _cosine
                  0x004866                  _rotate_2D_vector_by_vector
                  0x0048d4                  _rotate_2D_long_vector_by_vector
                  0x004932                  _rotate_2D_vector_by_angle
                  0x00494e                  _rotate
                  0x0049b8                  _rect_to_polar
                  0x004a6c                  _rect_to_polar16
                  0x004b4a                  _sqrt_int
                  0x004bb2                  _sqrt_long
                  0x004c58                  _vector2_mag
                  0x004c78                  _vector3_mag
                  0x004ca4                  _vector2_normalize
                  0x004d0e                  _vector3_normalize
                  0x004da4                  _long_scale
                  0x004e32                  _limit_value
                  0x004e5c                  _compute_pi_block
                  0x004f06                  _IIR_Filter
                  0x004f86                  _exponential_filter
                  0x004ffc                  _exponential_filter32
                  0x005072                  _ms_init
                  0x0050a2                  _sga_filter
 .text            0x00516c        0x9f6 build/default/production/_ext/1472/altitudeCntrl.o
                  0x00516c                  _excess_energy_height
                  0x005252                  _altitudeCntrl
                  0x005270                  _set_throttle_control
                  0x0052d0                  _set_throttle_hover_control
                  0x005330                  _hovering_failsafe
                  0x00534c                  _setTargetAltitude
                  0x005358                  _normalAltitudeCntrl
                  0x0055cc                  _manualThrottle
                  0x00560e                  _manualHoverThrottle
                  0x005650                  _compute_vz_alt_sensor
                  0x0056c6                  _hoverAltitudeCntrl
                  0x005af0                  _calculate_sonar_height_above_ground
 .text            0x005b62        0x64e build/default/production/_ext/1472/motorCntrl.o
                  0x005b62                  _motorCntrl
 .text            0x0061b0        0x5da build/default/production/_ext/1077454706/barometer.o
                  0x0061b0                  _rxBarometer
                  0x0063a8                  _ReadBarCalib_callback
                  0x0066e0                  _ReadBarTemp_callback
                  0x006710                  _ReadBarPres_callback
 .text            0x00678a        0x51a build/default/production/_ext/1472/telemetry.o
                  0x00678a                  _init_serial
                  0x0067b8                  _udb_serial_callback_received_byte
                  0x0067c6                  _sio_newMsg
                  0x0067f4                  _sio_voltage_high
                  0x006808                  _sio_voltage_low
                  0x006824                  _hex_char_val
                  0x00685a                  _sio_fp_data
                  0x0068b0                  _sio_fp_checksum
                  0x0068f4                  _serial_output
                  0x006934                  _udb_serial_callback_get_byte_to_send
                  0x006956                  _serial_output_8hz
 .text            0x006ca4        0x47a build/default/production/_ext/1472/navigate.o
                  0x006ce6                  _dcm_callback_gps_location_updated
                  0x006cfa                  _set_goal
                  0x006d52                  _update_goal_alt
                  0x006d5e                  _process_flightplan
                  0x006d80                  _compute_bearing_to_goal
                  0x006f3e                  _wind_gain_adjustment
                  0x006f46                  _determine_navigation_deflection
                  0x00709a                  _compute_hovering_dir
 .text            0x00711e        0x3b0 build/default/production/_ext/1077454706/radioIn.o
                  0x00711e                  _udb_init_capture
                  0x007210                  _set_udb_pwIn
                  0x007258                  __IC1Interrupt
                  0x0072a8                  __IC2Interrupt
                  0x0072f8                  __IC3Interrupt
                  0x007348                  __IC4Interrupt
                  0x007398                  __IC5Interrupt
                  0x0073e8                  __IC6Interrupt
                  0x007438                  __IC7Interrupt
                  0x007488                  __IC8Interrupt
 .text            0x0074ce        0x392 build/default/production/_ext/1077454706/I2C2.o
                  0x0074ce                  _I2C2_Normal
                  0x0074fc                  _I2C2_Reset
                  0x007564                  _I2C2_trigger_service
                  0x007570                  build/default/production/_ext/1077454706/I2C2.o:_serviceI2C2
                  0x007586                  __MI2C2Interrupt
                  0x0075ea                  _I2C2_Write
                  0x007630                  _I2C2_Read
                  0x007678                  _I2C2_checkACK
                  0x0076b4                  build/default/production/_ext/1077454706/I2C2.o:_isr_startWrite
                  0x0076d0                  build/default/production/_ext/1077454706/I2C2.o:_isr_writeAddress
                  0x0076e6                  build/default/production/_ext/1077454706/I2C2.o:_isr_writeCommandData
                  0x007730                  build/default/production/_ext/1077454706/I2C2.o:_isr_writeData
                  0x00776c                  build/default/production/_ext/1077454706/I2C2.o:_isr_writeStop
                  0x007778                  build/default/production/_ext/1077454706/I2C2.o:_isr_doneWrite
                  0x00778c                  build/default/production/_ext/1077454706/I2C2.o:_isr_readStart
                  0x00779c                  build/default/production/_ext/1077454706/I2C2.o:_isr_readAddress
                  0x0077cc                  build/default/production/_ext/1077454706/I2C2.o:_isr_recen
                  0x0077e6                  build/default/production/_ext/1077454706/I2C2.o:_isr_rerecen
                  0x0077f2                  build/default/production/_ext/1077454706/I2C2.o:_isr_recstore
                  0x007820                  build/default/production/_ext/1077454706/I2C2.o:_isr_stopRead
                  0x00782c                  build/default/production/_ext/1077454706/I2C2.o:_isr_idle
                  0x007832                  build/default/production/_ext/1077454706/I2C2.o:_isr_doneRead

.dinit            0x007860        0x370
 .dinit           0x007860        0x370 data_init

.text             0x007bd0       0x32de
 .text            0x007bd0        0x348 build/default/production/_ext/1472/flightplan-waypoints.o
                  0x007bd0                  _wp_to_relative
                  0x007c5a                  _init_flightplan
                  0x007cb6                  _use_fixed_origin
                  0x007cbe                  _get_fixed_origin
                  0x007d20                  _next_waypoint
                  0x007e26                  _run_flightplan
                  0x007ecc                  _flightplan_live_begin
                  0x007ed4                  _flightplan_live_received_byte
                  0x007f04                  _flightplan_live_commit
 .text            0x007f18        0x2e4 build/default/production/_ext/1077471063/deadReckoning.o
                  0x007f18                  _dead_reckon
 .text            0x0081fc        0x2dc build/default/production/_ext/1472/states.o
                  0x0081fc                  _init_states
                  0x008212                  _udb_callback_radio_did_turn_off
                  0x00821a                  _udb_background_callback_periodic
                  0x008326                  build/default/production/_ext/1472/states.o:_startS
                  0x00832e                  build/default/production/_ext/1472/states.o:_calibrateS
                  0x00836c                  build/default/production/_ext/1472/states.o:_acquiringS
                  0x0083d6                  build/default/production/_ext/1472/states.o:_manualS
                  0x008418                  build/default/production/_ext/1472/states.o:_stabilizedS
                  0x008456                  build/default/production/_ext/1472/states.o:_waypointS
                  0x00849c                  build/default/production/_ext/1472/states.o:_returnS
 .text            0x0084d8        0x2be build/default/production/_ext/1077454706/spiUtils.o
                  0x0084d8                  _initSPI1_master16
                  0x00851a                  _writeSPI1reg16
                  0x00854a                  _no_call_back
                  0x008550                  _readSPI1_burst16n
                  0x008582                  __SPI1Interrupt
                  0x008632                  _initSPI2_master16
                  0x008674                  _writeSPI2reg16
                  0x0086b8                  _readSPI2_burst16n
                  0x0086e8                  __SPI2Interrupt
 .text            0x008796        0x2a2 build/default/production/_ext/1077454706/magnetometer.o
                  0x008796                  _rxMagnetometer
                  0x008898                  build/default/production/_ext/1077454706/magnetometer.o:_I2C_callback
                  0x008a2a                  _HILSIM_MagData
 .text            0x008a38        0x278 build/default/production/_ext/1077454706/serialIO.o
                  0x008a38                  _udb_init_GPS
                  0x008a96                  _udb_gps_set_rate
                  0x008ac0                  _udb_gps_check_rate
                  0x008af6                  _udb_gps_start_sending_data
                  0x008afe                  __U1TXInterrupt
                  0x008b38                  __U1RXInterrupt
                  0x008b74                  _udb_init_USART
                  0x008bd2                  _udb_serial_set_rate
                  0x008bfc                  _udb_serial_check_rate
                  0x008c32                  _udb_serial_start_sending_data
                  0x008c3a                  __U2TXInterrupt
                  0x008c74                  __U2RXInterrupt
 .text            0x008cb0        0x268 build/default/production/_ext/1472/servoMix.o
                  0x008cb0                  _compute_pot_order
                  0x008cec                  _servoMix
                  0x008e54                  _sonarServoMix
                  0x008e78                  _cameraServoMix
 .text            0x008f18        0x260 build/default/production/_ext/1077471063/gpsParseCommon.o
                  0x008f18                  _gpsoutbin
                  0x008f32                  _gpsoutline
                  0x008f4a                  _udb_gps_callback_get_byte_to_send
                  0x008f74                  _udb_gps_callback_received_byte
                  0x008f82                  _udb_background_callback_triggered
 .text            0x009178        0x23e build/default/production/_ext/1077471063/estWind.o
                  0x009178                  _estimateWind
 .text            0x0093b6        0x22a build/default/production/_ext/1077454706/servoOut.o
                  0x0093b6                  _udb_init_pwm
                  0x00942c                  _udb_set_action_state
                  0x009446                  _start_pwm_outputs
                  0x009458                  _start_pwm_outputs_2
                  0x00946a                  _start_pwm_outputs_3
                  0x00947c                  __T4Interrupt
                  0x0094d8                  __T3Interrupt
                  0x009536                  __T8Interrupt
 .text            0x0095e0        0x1f4 build/default/production/_ext/1077454706/eeprom_udb4.o
                  0x0095e0                  _udb_eeprom_init
                  0x0095ea                  _bstart
                  0x0095fe                  _bstop
                  0x009612                  _bit_out
                  0x00963c                  _bit_in
                  0x009672                  _byte_out
                  0x00969c                  _byte_in
                  0x0096c6                  _ACK_Poll
                  0x0096e0                  _eeprom_ByteWrite
                  0x009706                  _eeprom_PageWrite
                  0x009744                  _eeprom_ByteRead
                  0x009776                  _eeprom_SequentialRead
 .text            0x0097d4        0x1e8 build/default/production/_ext/1472/pitchCntrl.o
                  0x0097d4                  _pitchCntrl
                  0x0097f0                  _normalPitchCntrl
                  0x0098d4                  _hoverPitchCntrl
 .text            0x0099bc        0x1da build/default/production/_ext/1077454706/events.o
                  0x0099bc                  _register_event
                  0x0099ca                  _register_event_p
                  0x009a16                  _trigger_event
                  0x009a64                  _init_events
                  0x009ac2                  __C2Interrupt
                  0x009b2c                  __C1Interrupt
 .text            0x009b96        0x1ca build/default/production/_ext/1472/rollCntrl.o
                  0x009b96                  _rollCntrl
                  0x009bb0                  _normalRollCntrl
                  0x009c74                  _hoverRollCntrl
 .text            0x009d60        0x1c4 build/default/production/_ext/1077471063/gpsParseSTD.o
                  0x009d60                  _gps_nav_valid
                  0x009d72                  _gps_startup_sequence
                  0x009db8                  _msg_B3
                  0x009dcc                  _msg_A0
                  0x009de8                  _msg_A2
                  0x009dfa                  _msg_PL1
                  0x009e12                  _msg_PL2
                  0x009e48                  _msg_MSG41
                  0x009e8e                  _msg_MSGU
                  0x009eb6                  _msg_B0
                  0x009ee6                  _commit_gps_data
 .text            0x009f24        0x1ba build/default/production/_ext/1077454706/background.o
                  0x009f24                  _udb_init_clock
                  0x009f8e                  __T1Interrupt
                  0x00a008                  _udb_background_trigger
                  0x00a010                  __T7Interrupt
                  0x00a03a                  _udb_cpu_load
                  0x00a04a                  __T5Interrupt
                  0x00a066                  __T6Interrupt
 .text            0x00a0de        0x176 build/default/production/_ext/1472/behavior.o
                  0x00a0de                  _init_behavior
                  0x00a0ee                  _setBehavior
                  0x00a112                  _canStabilizeInverted
                  0x00a11a                  _canStabilizeHover
                  0x00a130                  _updateBehavior
                  0x00a1fe                  _updateTriggerAction
                  0x00a246                  _triggerActionSetValue
 .text            0x00a254        0x172 build/default/production/_ext/1077454706/analog2digital_udb5.o
                  0x00a254                  _udb_init_ADC
                  0x00a314                  __DMA0Interrupt
 .text            0x00a3c6        0x164 build/default/production/_ext/1077471063/libDCM.o
                  0x00a3c6                  _dcm_init
                  0x00a3d4                  _dcm_run_init_step
                  0x00a402                  _udb_callback_read_sensors
                  0x00a410                  _do_I2C_stuff
                  0x00a444                  _udb_servo_callback_prepare_outputs
                  0x00a478                  _dcm_calibrate
                  0x00a490                  _dcm_set_origin_location
                  0x00a4ce                  _dcm_absolute_to_relative
 .text            0x00a52a        0x122 build/default/production/_ext/1472/servoPrepare.o
                  0x00a52a                  _init_servoPrepare
                  0x00a5b0                  _dcm_servo_callback_prepare_outputs
                  0x00a62c                  _manualPassthrough
 .text            0x00a64c        0x11c build/default/production/_ext/1077454706/mpu6000.o
                  0x00a64c                  _MPU6000_init16
                  0x00a6d2                  _process_MPU_data
                  0x00a6f8                  _MPU6000_read
                  0x00a710                  __INT3Interrupt
                  0x00a738                  _MPU6000_print
 .text            0x00a768        0x108 build/default/production/_ext/1077471063/estAltitude.o
                  0x00a768                  _get_barometer_temperature
                  0x00a770                  _get_barometer_pressure
                  0x00a77a                  _get_barometer_altitude
                  0x00a784                  _get_barometer_agl_altitude
                  0x00a78e                  _altimeter_calibrate
                  0x00a7e0                  _udb_barometer_callback
                  0x00a7f6                  _estBaroAltitude
 .text            0x00a870         0xee build/default/production/_ext/1077454706/mcu.o
                  0x00a870                  _get_reset_flags
                  0x00a886                  _configureDigitalIO
                  0x00a91e                  _init_leds
                  0x00a934                  _mcu_init
 .text            0x00a95e         0xde build/default/production/_ext/1077454706/traps.o
                  0x00a95e                  _reset
                  0x00a978                  __OscillatorFail
                  0x00a9a4                  __AddressError
                  0x00a9ca                  __StackError
                  0x00a9f0                  __MathError
                  0x00aa16                  __DMACError
 .text            0x00aa3c         0xc0 build/default/production/_ext/1472/yawCntrl.o
                  0x00aa3c                  _yawCntrl
                  0x00aa56                  _normalYawCntrl
                  0x00aadc                  _hoverYawCntrl
 .text            0x00aafc         0xc0 build/default/production/_ext/1472/mode_switch.o
                  0x00aafc                  _flight_mode_switch_manual
                  0x00ab0a                  _flight_mode_switch_stabilize
                  0x00ab18                  _flight_mode_switch_waypoints
                  0x00ab26                  _flight_mode_switch_2pos_poll
                  0x00ab2c                  _flight_mode_switch_check_set
 .text            0x00abbc         0xb8 build/default/production/_ext/1077454706/libUDB.o
                  0x00abbc                  _udb_init
                  0x00abf0                  _udb_run
                  0x00abf6                  _udb_a2d_record_offsets
                  0x00ac18                  _udb_servo_record_trims
                  0x00ac40                  _udb_servo_pulsesat
                  0x00ac6e                  _calculate_analog_sensor_values
 .text            0x00ac74         0xa2 build/default/production/_ext/1472/cameraCntrl.o
                  0x00ac74                  _cam_pitchServoLimit
                  0x00ac9e                  _cam_yawServoLimit
                  0x00acc8                  _set_camera_view
                  0x00ace0                  _compute_camera_view
                  0x00acfe                  _cameraInit
                  0x00ad10                  _cameraCntrl
 .text            0x00ad16         0x7a build/default/production/_ext/1472/sonarCntrl.o
                  0x00ad16                  _sonar_pitchServoLimit
                  0x00ad40                  _sonarInit
                  0x00ad4a                  _sonarCntrl
 .text            0x00ad90         0x78 build/default/production/_ext/1077471063/estYawDrift.o
                  0x00ad90                  _dcm_enable_yaw_drift_correction
                  0x00adae                  _estYawDrift
 .text            0x00ae08         0x42 build/default/production/_ext/1472/euler_angles.o
                  0x00ae08                  _get_geo_heading_angle
 .text            0x00ae4a         0x3a build/default/production/_ext/1472/main.o
                  0x00ae4a                  _main
 .text            0x00ae84         0x2a build/default/production/_ext/1077454706/traps_asm.o
                  0x00ae84                  _SP_start
                  0x00ae88                  _SP_limit
                  0x00ae8c                  _SP_current
                  0x00ae90                  _getErrLoc
                  0x00aea6                  _gentrap

.init.delay32     0x00aeae         0x1c
 .init.delay32    0x00aeae         0x1c c:/program files (x86)/microchip/xc16/v1.31/bin/bin/../../lib\liblega-pic30-elf.a(delay32.Leo)
                  0x00aeae                  ___delay32
